---
triple:          'arm64-apple-darwin'
binary-path:     test_removeNumbers
relocations:
  - { offsetInCU: 0x1B11F, offset: 0x1B11F, size: 0x8, addend: 0x0, symName: __ZStL8__ioinit, symObjAddr: 0xB83B0, symBinAddr: 0x1000B4048, symSize: 0x0 }
  - { offsetInCU: 0x1DF58, offset: 0x1DF58, size: 0x8, addend: 0x0, symName: __ZN30RemoveNumbers_EmptyString_Test10test_info_E, symObjAddr: 0xB83B8, symBinAddr: 0x1000B4108, symSize: 0x0 }
  - { offsetInCU: 0x1E173, offset: 0x1E173, size: 0x8, addend: 0x0, symName: __ZN30RemoveNumbers_SmallString_Test10test_info_E, symObjAddr: 0xB83C0, symBinAddr: 0x1000B4110, symSize: 0x0 }
  - { offsetInCU: 0x1E298, offset: 0x1E298, size: 0x8, addend: 0x0, symName: __ZN33RemoveNumbers_NonemptyVector_Test10test_info_E, symObjAddr: 0xB83C8, symBinAddr: 0x1000B4118, symSize: 0x0 }
  - { offsetInCU: 0x1E3A0, offset: 0x1E3A0, size: 0x8, addend: 0x0, symName: __ZN30RemoveNumbers_NoNumString_Test10test_info_E, symObjAddr: 0xB83D0, symBinAddr: 0x1000B4120, symSize: 0x0 }
  - { offsetInCU: 0x1E4AE, offset: 0x1E4AE, size: 0x8, addend: 0x0, symName: __ZN33RemoveNumbers_MultiNumString_Test10test_info_E, symObjAddr: 0xB83D8, symBinAddr: 0x1000B4128, symSize: 0x0 }
  - { offsetInCU: 0x1E5BA, offset: 0x1E5BA, size: 0x8, addend: 0x0, symName: __ZN34RemoveNumbers_StringWithMinus_Test10test_info_E, symObjAddr: 0xB83E0, symBinAddr: 0x1000B4130, symSize: 0x0 }
  - { offsetInCU: 0x1E6C6, offset: 0x1E6C6, size: 0x8, addend: 0x0, symName: __ZN35RemoveNumbers_StringWithCommas_Test10test_info_E, symObjAddr: 0xB83E8, symBinAddr: 0x1000B4138, symSize: 0x0 }
  - { offsetInCU: 0x1E7D2, offset: 0x1E7D2, size: 0x8, addend: 0x0, symName: __ZN36RemoveNumbers_StringFromChatGPT_Test10test_info_E, symObjAddr: 0xB83F0, symBinAddr: 0x1000B4140, symSize: 0x0 }
  - { offsetInCU: 0x1EC6A, offset: 0x1EC6A, size: 0x8, addend: 0x0, symName: __ZN7testing8internal15TestFactoryImplI30RemoveNumbers_EmptyString_TestE10CreateTestEv, symObjAddr: 0x5DE8, symBinAddr: 0x100006D18, symSize: 0x68 }
  - { offsetInCU: 0x1ECD2, offset: 0x1ECD2, size: 0x8, addend: 0x0, symName: __ZN30RemoveNumbers_EmptyString_TestC1Ev, symObjAddr: 0x5DB8, symBinAddr: 0x100006CE8, symSize: 0x30 }
  - { offsetInCU: 0x1ECD4, offset: 0x1ECD4, size: 0x8, addend: 0x0, symName: __ZN7testing8internal15TestFactoryImplI30RemoveNumbers_SmallString_TestE10CreateTestEv, symObjAddr: 0x5D50, symBinAddr: 0x100006C80, symSize: 0x68 }
  - { offsetInCU: 0x1ED3C, offset: 0x1ED3C, size: 0x8, addend: 0x0, symName: __ZN30RemoveNumbers_SmallString_TestC1Ev, symObjAddr: 0x5D20, symBinAddr: 0x100006C50, symSize: 0x30 }
  - { offsetInCU: 0x1ED3E, offset: 0x1ED3E, size: 0x8, addend: 0x0, symName: __ZN7testing8internal15TestFactoryImplI33RemoveNumbers_NonemptyVector_TestE10CreateTestEv, symObjAddr: 0x5CB8, symBinAddr: 0x100006BE8, symSize: 0x68 }
  - { offsetInCU: 0x1EDA9, offset: 0x1EDA9, size: 0x8, addend: 0x0, symName: __ZN33RemoveNumbers_NonemptyVector_TestC1Ev, symObjAddr: 0x5C88, symBinAddr: 0x100006BB8, symSize: 0x30 }
  - { offsetInCU: 0x1EDA8, offset: 0x1EDA8, size: 0x8, addend: 0x0, symName: __ZN7testing8internal15TestFactoryImplI30RemoveNumbers_NoNumString_TestE10CreateTestEv, symObjAddr: 0x5C20, symBinAddr: 0x100006B50, symSize: 0x68 }
  - { offsetInCU: 0x1EE10, offset: 0x1EE10, size: 0x8, addend: 0x0, symName: __ZN30RemoveNumbers_NoNumString_TestC1Ev, symObjAddr: 0x5BF0, symBinAddr: 0x100006B20, symSize: 0x30 }
  - { offsetInCU: 0x1EE12, offset: 0x1EE12, size: 0x8, addend: 0x0, symName: __ZN7testing8internal15TestFactoryImplI33RemoveNumbers_MultiNumString_TestE10CreateTestEv, symObjAddr: 0x5B88, symBinAddr: 0x100006AB8, symSize: 0x68 }
  - { offsetInCU: 0x1EE7D, offset: 0x1EE7D, size: 0x8, addend: 0x0, symName: __ZN33RemoveNumbers_MultiNumString_TestC1Ev, symObjAddr: 0x5B58, symBinAddr: 0x100006A88, symSize: 0x30 }
  - { offsetInCU: 0x1EE7C, offset: 0x1EE7C, size: 0x8, addend: 0x0, symName: __ZN7testing8internal15TestFactoryImplI34RemoveNumbers_StringWithMinus_TestE10CreateTestEv, symObjAddr: 0x5AF0, symBinAddr: 0x100006A20, symSize: 0x68 }
  - { offsetInCU: 0x1EEE8, offset: 0x1EEE8, size: 0x8, addend: 0x0, symName: __ZN34RemoveNumbers_StringWithMinus_TestC1Ev, symObjAddr: 0x5AC0, symBinAddr: 0x1000069F0, symSize: 0x30 }
  - { offsetInCU: 0x1EEE6, offset: 0x1EEE6, size: 0x8, addend: 0x0, symName: __ZN7testing8internal15TestFactoryImplI35RemoveNumbers_StringWithCommas_TestE10CreateTestEv, symObjAddr: 0x5A58, symBinAddr: 0x100006988, symSize: 0x68 }
  - { offsetInCU: 0x1EF53, offset: 0x1EF53, size: 0x8, addend: 0x0, symName: __ZN35RemoveNumbers_StringWithCommas_TestC1Ev, symObjAddr: 0x5A28, symBinAddr: 0x100006958, symSize: 0x30 }
  - { offsetInCU: 0x1EF50, offset: 0x1EF50, size: 0x8, addend: 0x0, symName: __ZN7testing8internal15TestFactoryImplI36RemoveNumbers_StringFromChatGPT_TestE10CreateTestEv, symObjAddr: 0x59C0, symBinAddr: 0x1000068F0, symSize: 0x68 }
  - { offsetInCU: 0x1EFBE, offset: 0x1EFBE, size: 0x8, addend: 0x0, symName: __ZN36RemoveNumbers_StringFromChatGPT_TestC1Ev, symObjAddr: 0x5990, symBinAddr: 0x1000068C0, symSize: 0x30 }
  - { offsetInCU: 0x1F02A, offset: 0x1F02A, size: 0x8, addend: 0x0, symName: __ZN7testing8internal15TestFactoryImplI30RemoveNumbers_EmptyString_TestED0Ev, symObjAddr: 0x5968, symBinAddr: 0x100006898, symSize: 0x28 }
  - { offsetInCU: 0x1F054, offset: 0x1F054, size: 0x8, addend: 0x0, symName: __ZN7testing8internal15TestFactoryImplI30RemoveNumbers_EmptyString_TestED1Ev, symObjAddr: 0x5934, symBinAddr: 0x100006864, symSize: 0x34 }
  - { offsetInCU: 0x1F07A, offset: 0x1F07A, size: 0x8, addend: 0x0, symName: __ZN30RemoveNumbers_EmptyString_TestD0Ev, symObjAddr: 0x590C, symBinAddr: 0x10000683C, symSize: 0x28 }
  - { offsetInCU: 0x1F0A4, offset: 0x1F0A4, size: 0x8, addend: 0x0, symName: __ZN30RemoveNumbers_EmptyString_TestD1Ev, symObjAddr: 0x58DC, symBinAddr: 0x10000680C, symSize: 0x30 }
  - { offsetInCU: 0x1F116, offset: 0x1F116, size: 0x8, addend: 0x0, symName: __ZN7testing8internal15TestFactoryImplI30RemoveNumbers_SmallString_TestED0Ev, symObjAddr: 0x58B4, symBinAddr: 0x1000067E4, symSize: 0x28 }
  - { offsetInCU: 0x1F140, offset: 0x1F140, size: 0x8, addend: 0x0, symName: __ZN7testing8internal15TestFactoryImplI30RemoveNumbers_SmallString_TestED1Ev, symObjAddr: 0x5880, symBinAddr: 0x1000067B0, symSize: 0x34 }
  - { offsetInCU: 0x1F166, offset: 0x1F166, size: 0x8, addend: 0x0, symName: __ZN30RemoveNumbers_SmallString_TestD0Ev, symObjAddr: 0x5858, symBinAddr: 0x100006788, symSize: 0x28 }
  - { offsetInCU: 0x1F190, offset: 0x1F190, size: 0x8, addend: 0x0, symName: __ZN30RemoveNumbers_SmallString_TestD1Ev, symObjAddr: 0x5828, symBinAddr: 0x100006758, symSize: 0x30 }
  - { offsetInCU: 0x1F205, offset: 0x1F205, size: 0x8, addend: 0x0, symName: __ZN7testing8internal15TestFactoryImplI33RemoveNumbers_NonemptyVector_TestED0Ev, symObjAddr: 0x5800, symBinAddr: 0x100006730, symSize: 0x28 }
  - { offsetInCU: 0x1F22F, offset: 0x1F22F, size: 0x8, addend: 0x0, symName: __ZN7testing8internal15TestFactoryImplI33RemoveNumbers_NonemptyVector_TestED1Ev, symObjAddr: 0x57CC, symBinAddr: 0x1000066FC, symSize: 0x34 }
  - { offsetInCU: 0x1F255, offset: 0x1F255, size: 0x8, addend: 0x0, symName: __ZN33RemoveNumbers_NonemptyVector_TestD0Ev, symObjAddr: 0x57A4, symBinAddr: 0x1000066D4, symSize: 0x28 }
  - { offsetInCU: 0x1F27F, offset: 0x1F27F, size: 0x8, addend: 0x0, symName: __ZN33RemoveNumbers_NonemptyVector_TestD1Ev, symObjAddr: 0x5774, symBinAddr: 0x1000066A4, symSize: 0x30 }
  - { offsetInCU: 0x1F2EE, offset: 0x1F2EE, size: 0x8, addend: 0x0, symName: __ZN7testing8internal15TestFactoryImplI30RemoveNumbers_NoNumString_TestED0Ev, symObjAddr: 0x574C, symBinAddr: 0x10000667C, symSize: 0x28 }
  - { offsetInCU: 0x1F318, offset: 0x1F318, size: 0x8, addend: 0x0, symName: __ZN7testing8internal15TestFactoryImplI30RemoveNumbers_NoNumString_TestED1Ev, symObjAddr: 0x5718, symBinAddr: 0x100006648, symSize: 0x34 }
  - { offsetInCU: 0x1F33E, offset: 0x1F33E, size: 0x8, addend: 0x0, symName: __ZN30RemoveNumbers_NoNumString_TestD0Ev, symObjAddr: 0x56F0, symBinAddr: 0x100006620, symSize: 0x28 }
  - { offsetInCU: 0x1F368, offset: 0x1F368, size: 0x8, addend: 0x0, symName: __ZN30RemoveNumbers_NoNumString_TestD1Ev, symObjAddr: 0x56C0, symBinAddr: 0x1000065F0, symSize: 0x30 }
  - { offsetInCU: 0x1F3DD, offset: 0x1F3DD, size: 0x8, addend: 0x0, symName: __ZN7testing8internal15TestFactoryImplI33RemoveNumbers_MultiNumString_TestED0Ev, symObjAddr: 0x5698, symBinAddr: 0x1000065C8, symSize: 0x28 }
  - { offsetInCU: 0x1F407, offset: 0x1F407, size: 0x8, addend: 0x0, symName: __ZN7testing8internal15TestFactoryImplI33RemoveNumbers_MultiNumString_TestED1Ev, symObjAddr: 0x5664, symBinAddr: 0x100006594, symSize: 0x34 }
  - { offsetInCU: 0x1F42D, offset: 0x1F42D, size: 0x8, addend: 0x0, symName: __ZN33RemoveNumbers_MultiNumString_TestD0Ev, symObjAddr: 0x563C, symBinAddr: 0x10000656C, symSize: 0x28 }
  - { offsetInCU: 0x1F457, offset: 0x1F457, size: 0x8, addend: 0x0, symName: __ZN33RemoveNumbers_MultiNumString_TestD1Ev, symObjAddr: 0x560C, symBinAddr: 0x10000653C, symSize: 0x30 }
  - { offsetInCU: 0x1F4CA, offset: 0x1F4CA, size: 0x8, addend: 0x0, symName: __ZN7testing8internal15TestFactoryImplI34RemoveNumbers_StringWithMinus_TestED0Ev, symObjAddr: 0x55E4, symBinAddr: 0x100006514, symSize: 0x28 }
  - { offsetInCU: 0x1F4F4, offset: 0x1F4F4, size: 0x8, addend: 0x0, symName: __ZN7testing8internal15TestFactoryImplI34RemoveNumbers_StringWithMinus_TestED1Ev, symObjAddr: 0x55B0, symBinAddr: 0x1000064E0, symSize: 0x34 }
  - { offsetInCU: 0x1F51A, offset: 0x1F51A, size: 0x8, addend: 0x0, symName: __ZN34RemoveNumbers_StringWithMinus_TestD0Ev, symObjAddr: 0x5588, symBinAddr: 0x1000064B8, symSize: 0x28 }
  - { offsetInCU: 0x1F544, offset: 0x1F544, size: 0x8, addend: 0x0, symName: __ZN34RemoveNumbers_StringWithMinus_TestD1Ev, symObjAddr: 0x5558, symBinAddr: 0x100006488, symSize: 0x30 }
  - { offsetInCU: 0x1F5B7, offset: 0x1F5B7, size: 0x8, addend: 0x0, symName: __ZN7testing8internal15TestFactoryImplI35RemoveNumbers_StringWithCommas_TestED0Ev, symObjAddr: 0x5530, symBinAddr: 0x100006460, symSize: 0x28 }
  - { offsetInCU: 0x1F5E1, offset: 0x1F5E1, size: 0x8, addend: 0x0, symName: __ZN7testing8internal15TestFactoryImplI35RemoveNumbers_StringWithCommas_TestED1Ev, symObjAddr: 0x54FC, symBinAddr: 0x10000642C, symSize: 0x34 }
  - { offsetInCU: 0x1F607, offset: 0x1F607, size: 0x8, addend: 0x0, symName: __ZN35RemoveNumbers_StringWithCommas_TestD0Ev, symObjAddr: 0x54D4, symBinAddr: 0x100006404, symSize: 0x28 }
  - { offsetInCU: 0x1F631, offset: 0x1F631, size: 0x8, addend: 0x0, symName: __ZN35RemoveNumbers_StringWithCommas_TestD1Ev, symObjAddr: 0x54A4, symBinAddr: 0x1000063D4, symSize: 0x30 }
  - { offsetInCU: 0x1F6A4, offset: 0x1F6A4, size: 0x8, addend: 0x0, symName: __ZN7testing8internal15TestFactoryImplI36RemoveNumbers_StringFromChatGPT_TestED0Ev, symObjAddr: 0x547C, symBinAddr: 0x1000063AC, symSize: 0x28 }
  - { offsetInCU: 0x1F6CE, offset: 0x1F6CE, size: 0x8, addend: 0x0, symName: __ZN7testing8internal15TestFactoryImplI36RemoveNumbers_StringFromChatGPT_TestED1Ev, symObjAddr: 0x5448, symBinAddr: 0x100006378, symSize: 0x34 }
  - { offsetInCU: 0x1F6F4, offset: 0x1F6F4, size: 0x8, addend: 0x0, symName: __ZN36RemoveNumbers_StringFromChatGPT_TestD0Ev, symObjAddr: 0x5420, symBinAddr: 0x100006350, symSize: 0x28 }
  - { offsetInCU: 0x1F71E, offset: 0x1F71E, size: 0x8, addend: 0x0, symName: __ZN36RemoveNumbers_StringFromChatGPT_TestD1Ev, symObjAddr: 0x53F0, symBinAddr: 0x100006320, symSize: 0x30 }
  - { offsetInCU: 0x1F71A, offset: 0x1F71A, size: 0x8, addend: 0x0, symName: __ZN9__gnu_cxx17__normal_iteratorIPKxSt6vectorIxSaIxEEEppEv, symObjAddr: 0x53C8, symBinAddr: 0x1000062F8, symSize: 0x28 }
  - { offsetInCU: 0x1F746, offset: 0x1F746, size: 0x8, addend: 0x0, symName: __ZN9__gnu_cxxeqIPKxSt6vectorIxSaIxEEEEbRKNS_17__normal_iteratorIT_T0_EESB_QrqXeqcldtfL0p_4baseEcldtfL0p0_4baseERSt14convertible_toIbEE, symObjAddr: 0x5384, symBinAddr: 0x1000062B4, symSize: 0x44 }
  - { offsetInCU: 0x1F799, offset: 0x1F799, size: 0x8, addend: 0x0, symName: __ZN7testing8internal16ContainerPrinter10PrintValueISt6vectorIxSaIxEEvEEvRKT_PSo, symObjAddr: 0x5278, symBinAddr: 0x1000061A8, symSize: 0x10C }
  - { offsetInCU: 0x1F849, offset: 0x1F849, size: 0x8, addend: 0x0, symName: __ZNK9__gnu_cxx17__normal_iteratorIPKxSt6vectorIxSaIxEEEdeEv, symObjAddr: 0x5260, symBinAddr: 0x100006190, symSize: 0x18 }
  - { offsetInCU: 0x1F86F, offset: 0x1F86F, size: 0x8, addend: 0x0, symName: __ZN7testing8internal52internal_stream_operator_without_lexical_name_lookup13StreamPrinter10PrintValueIivEEDTcvvlsdefp0_fp_ERKT_PSo, symObjAddr: 0x5230, symBinAddr: 0x100006160, symSize: 0x30 }
  - { offsetInCU: 0x1F8B1, offset: 0x1F8B1, size: 0x8, addend: 0x0, symName: __ZN7testing8internal52internal_stream_operator_without_lexical_name_lookup13StreamPrinter10PrintValueImvEEDTcvvlsdefp0_fp_ERKT_PSo, symObjAddr: 0x5200, symBinAddr: 0x100006130, symSize: 0x30 }
  - { offsetInCU: 0x1F8F3, offset: 0x1F8F3, size: 0x8, addend: 0x0, symName: __ZN7testing8internal17PrintWithFallbackISt6vectorIxSaIxEEEEvRKT_PSo, symObjAddr: 0x51D8, symBinAddr: 0x100006108, symSize: 0x28 }
  - { offsetInCU: 0x1F937, offset: 0x1F937, size: 0x8, addend: 0x0, symName: __ZN7testing8internal17PrintWithFallbackIiEEvRKT_PSo, symObjAddr: 0x51B0, symBinAddr: 0x1000060E0, symSize: 0x28 }
  - { offsetInCU: 0x1F97B, offset: 0x1F97B, size: 0x8, addend: 0x0, symName: __ZN7testing8internal17PrintWithFallbackImEEvRKT_PSo, symObjAddr: 0x5188, symBinAddr: 0x1000060B8, symSize: 0x28 }
  - { offsetInCU: 0x1F9BF, offset: 0x1F9BF, size: 0x8, addend: 0x0, symName: __ZN7testing8internal52internal_stream_operator_without_lexical_name_lookup13StreamPrinter10PrintValueIxvEEDTcvvlsdefp0_fp_ERKT_PSo, symObjAddr: 0x5158, symBinAddr: 0x100006088, symSize: 0x30 }
  - { offsetInCU: 0x1FA01, offset: 0x1FA01, size: 0x8, addend: 0x0, symName: __ZN7testing8internal7PrintToISt6vectorIxSaIxEEEEvRKT_PSo, symObjAddr: 0x5130, symBinAddr: 0x100006060, symSize: 0x28 }
  - { offsetInCU: 0x1FA45, offset: 0x1FA45, size: 0x8, addend: 0x0, symName: __ZN7testing8internal7PrintToIiEEvRKT_PSo, symObjAddr: 0x5108, symBinAddr: 0x100006038, symSize: 0x28 }
  - { offsetInCU: 0x1FA89, offset: 0x1FA89, size: 0x8, addend: 0x0, symName: __ZN7testing8internal7PrintToImEEvRKT_PSo, symObjAddr: 0x50E0, symBinAddr: 0x100006010, symSize: 0x28 }
  - { offsetInCU: 0x1FACD, offset: 0x1FACD, size: 0x8, addend: 0x0, symName: __ZN7testing8internal17PrintWithFallbackIxEEvRKT_PSo, symObjAddr: 0x50B8, symBinAddr: 0x100005FE8, symSize: 0x28 }
  - { offsetInCU: 0x1FB11, offset: 0x1FB11, size: 0x8, addend: 0x0, symName: __ZN7testing8internal16UniversalPrinterISt6vectorIxSaIxEEE5PrintERKS4_PSo, symObjAddr: 0x5090, symBinAddr: 0x100005FC0, symSize: 0x28 }
  - { offsetInCU: 0x1FB4C, offset: 0x1FB4C, size: 0x8, addend: 0x0, symName: __ZNSt11__copy_moveILb0ELb0ESt26random_access_iterator_tagE12__assign_oneIxKxEEvPT_PT0_, symObjAddr: 0x5068, symBinAddr: 0x100005F98, symSize: 0x28 }
  - { offsetInCU: 0x1FB99, offset: 0x1FB99, size: 0x8, addend: 0x0, symName: __ZN7testing8internal16UniversalPrinterIiE5PrintERKiPSo, symObjAddr: 0x5040, symBinAddr: 0x100005F70, symSize: 0x28 }
  - { offsetInCU: 0x1FBD4, offset: 0x1FBD4, size: 0x8, addend: 0x0, symName: __ZN7testing8internal16UniversalPrinterImE5PrintERKmPSo, symObjAddr: 0x5018, symBinAddr: 0x100005F48, symSize: 0x28 }
  - { offsetInCU: 0x1FC0F, offset: 0x1FC0F, size: 0x8, addend: 0x0, symName: __ZN7testing8internal7PrintToIxEEvRKT_PSo, symObjAddr: 0x4FF0, symBinAddr: 0x100005F20, symSize: 0x28 }
  - { offsetInCU: 0x1FC53, offset: 0x1FC53, size: 0x8, addend: 0x0, symName: __ZN7testing8internal14UniversalPrintISt6vectorIxSaIxEEEEvRKT_PSo, symObjAddr: 0x4FC8, symBinAddr: 0x100005EF8, symSize: 0x28 }
  - { offsetInCU: 0x1FC97, offset: 0x1FC97, size: 0x8, addend: 0x0, symName: __ZNSt11__copy_moveILb0ELb1ESt26random_access_iterator_tagE8__copy_mIKxxEEPT0_PT_S7_S5_, symObjAddr: 0x4F38, symBinAddr: 0x100005E68, symSize: 0x90 }
  - { offsetInCU: 0x1FD06, offset: 0x1FD06, size: 0x8, addend: 0x0, symName: __ZNSt11__copy_moveILb0ELb0ESt26random_access_iterator_tagE8__copy_mIPKxPxEET0_T_S7_S6_, symObjAddr: 0x4EC4, symBinAddr: 0x100005DF4, symSize: 0x74 }
  - { offsetInCU: 0x1FD95, offset: 0x1FD95, size: 0x8, addend: 0x0, symName: __ZN7testing8internal14UniversalPrintIiEEvRKT_PSo, symObjAddr: 0x4E9C, symBinAddr: 0x100005DCC, symSize: 0x28 }
  - { offsetInCU: 0x1FDD9, offset: 0x1FDD9, size: 0x8, addend: 0x0, symName: __ZN7testing8internal14UniversalPrintImEEvRKT_PSo, symObjAddr: 0x4E74, symBinAddr: 0x100005DA4, symSize: 0x28 }
  - { offsetInCU: 0x1FE1D, offset: 0x1FE1D, size: 0x8, addend: 0x0, symName: __ZN7testing8internal16UniversalPrinterIxE5PrintERKxPSo, symObjAddr: 0x4E4C, symBinAddr: 0x100005D7C, symSize: 0x28 }
  - { offsetInCU: 0x1FE58, offset: 0x1FE58, size: 0x8, addend: 0x0, symName: __ZN7testing8internal21UniversalTersePrinterISt6vectorIxSaIxEEE5PrintERKS4_PSo, symObjAddr: 0x4E24, symBinAddr: 0x100005D54, symSize: 0x28 }
  - { offsetInCU: 0x1FE93, offset: 0x1FE93, size: 0x8, addend: 0x0, symName: __ZSt8__memcmpIxxEiPKT_PKT0_m, symObjAddr: 0x4D60, symBinAddr: 0x100005C90, symSize: 0xC4 }
  - { offsetInCU: 0x1FEEE, offset: 0x1FEEE, size: 0x8, addend: 0x0, symName: __ZSt14__copy_move_a2ILb0EPKxPxET1_T0_S4_S3_, symObjAddr: 0x4D0C, symBinAddr: 0x100005C3C, symSize: 0x54 }
  - { offsetInCU: 0x1FF56, offset: 0x1FF56, size: 0x8, addend: 0x0, symName: __ZN7testing8internal21UniversalTersePrinterIiE5PrintERKiPSo, symObjAddr: 0x4CE4, symBinAddr: 0x100005C14, symSize: 0x28 }
  - { offsetInCU: 0x1FF91, offset: 0x1FF91, size: 0x8, addend: 0x0, symName: __ZN7testing8internal21UniversalTersePrinterImE5PrintERKmPSo, symObjAddr: 0x4CBC, symBinAddr: 0x100005BEC, symSize: 0x28 }
  - { offsetInCU: 0x1FFCC, offset: 0x1FFCC, size: 0x8, addend: 0x0, symName: __ZN7testing8internal14UniversalPrintIxEEvRKT_PSo, symObjAddr: 0x4C94, symBinAddr: 0x100005BC4, symSize: 0x28 }
  - { offsetInCU: 0x20010, offset: 0x20010, size: 0x8, addend: 0x0, symName: __ZNSt10_Head_baseILm0EPNSt7__cxx1112basic_stringIcSt11char_traitsIcESaIcEEELb0EE7_M_headERKS7_, symObjAddr: 0x4C80, symBinAddr: 0x100005BB0, symSize: 0x14 }
  - { offsetInCU: 0x20039, offset: 0x20039, size: 0x8, addend: 0x0, symName: __ZNSt10_Head_baseILm0EPNSt7__cxx1118basic_stringstreamIcSt11char_traitsIcESaIcEEELb0EE7_M_headERKS7_, symObjAddr: 0x4C6C, symBinAddr: 0x100005B9C, symSize: 0x14 }
  - { offsetInCU: 0x20062, offset: 0x20062, size: 0x8, addend: 0x0, symName: __ZNSt10_Head_baseILm1ESt14default_deleteINSt7__cxx1118basic_stringstreamIcSt11char_traitsIcESaIcEEEELb1EE7_M_headERS8_, symObjAddr: 0x4C58, symBinAddr: 0x100005B88, symSize: 0x14 }
  - { offsetInCU: 0x2008B, offset: 0x2008B, size: 0x8, addend: 0x0, symName: __ZN7testing13PrintToStringISt6vectorIxSaIxEEEENSt7__cxx1112basic_stringIcSt11char_traitsIcESaIcEEERKT_, symObjAddr: 0x4BE8, symBinAddr: 0x100005B18, symSize: 0x70 }
  - { offsetInCU: 0x200D1, offset: 0x200D1, size: 0x8, addend: 0x0, symName: __ZNSt7__equalILb1EE5equalIxEEbPKT_S4_S4_, symObjAddr: 0x4B88, symBinAddr: 0x100005AB8, symSize: 0x60 }
  - { offsetInCU: 0x2014E, offset: 0x2014E, size: 0x8, addend: 0x0, symName: __ZNK9__gnu_cxx17__normal_iteratorIPKxSt6vectorIxSaIxEEE4baseEv, symObjAddr: 0x4B74, symBinAddr: 0x100005AA4, symSize: 0x14 }
  - { offsetInCU: 0x20174, offset: 0x20174, size: 0x8, addend: 0x0, symName: __ZSt12__niter_wrapIPxET_RKS1_S1_, symObjAddr: 0x4B5C, symBinAddr: 0x100005A8C, symSize: 0x18 }
  - { offsetInCU: 0x201B0, offset: 0x201B0, size: 0x8, addend: 0x0, symName: __ZSt14__copy_move_a1ILb0EPKxPxET1_T0_S4_S3_, symObjAddr: 0x4B30, symBinAddr: 0x100005A60, symSize: 0x2C }
  - { offsetInCU: 0x20218, offset: 0x20218, size: 0x8, addend: 0x0, symName: __ZSt12__niter_baseIPxET_S1_, symObjAddr: 0x4B1C, symBinAddr: 0x100005A4C, symSize: 0x14 }
  - { offsetInCU: 0x2024B, offset: 0x2024B, size: 0x8, addend: 0x0, symName: __ZSt12__niter_baseIPKxET_S2_, symObjAddr: 0x4B08, symBinAddr: 0x100005A38, symSize: 0x14 }
  - { offsetInCU: 0x2027E, offset: 0x2027E, size: 0x8, addend: 0x0, symName: __ZN7testing13PrintToStringIiEENSt7__cxx1112basic_stringIcSt11char_traitsIcESaIcEEERKT_, symObjAddr: 0x4A98, symBinAddr: 0x1000059C8, symSize: 0x70 }
  - { offsetInCU: 0x202C4, offset: 0x202C4, size: 0x8, addend: 0x0, symName: __ZN7testing13PrintToStringImEENSt7__cxx1112basic_stringIcSt11char_traitsIcESaIcEEERKT_, symObjAddr: 0x4A28, symBinAddr: 0x100005958, symSize: 0x70 }
  - { offsetInCU: 0x2030A, offset: 0x2030A, size: 0x8, addend: 0x0, symName: __ZSt10destroy_atIxEvPT_, symObjAddr: 0x4A14, symBinAddr: 0x100005944, symSize: 0x14 }
  - { offsetInCU: 0x20340, offset: 0x20340, size: 0x8, addend: 0x0, symName: __ZNSt15__new_allocatorIcE8allocateEmPKv, symObjAddr: 0x49B0, symBinAddr: 0x1000058E0, symSize: 0x64 }
  - { offsetInCU: 0x203C8, offset: 0x203C8, size: 0x8, addend: 0x0, symName: __ZNSt10_Head_baseILm1ESt14default_deleteINSt7__cxx1112basic_stringIcSt11char_traitsIcESaIcEEEELb1EE7_M_headERS8_, symObjAddr: 0x499C, symBinAddr: 0x1000058CC, symSize: 0x14 }
  - { offsetInCU: 0x203F1, offset: 0x203F1, size: 0x8, addend: 0x0, symName: __ZNSt10_Head_baseILm0EPNSt7__cxx1112basic_stringIcSt11char_traitsIcESaIcEEELb0EE7_M_headERS7_, symObjAddr: 0x4988, symBinAddr: 0x1000058B8, symSize: 0x14 }
  - { offsetInCU: 0x2041A, offset: 0x2041A, size: 0x8, addend: 0x0, symName: __ZNSt11_Tuple_implILm0EJPNSt7__cxx1112basic_stringIcSt11char_traitsIcESaIcEEESt14default_deleteIS5_EEE7_M_headERKS9_, symObjAddr: 0x496C, symBinAddr: 0x10000589C, symSize: 0x1C }
  - { offsetInCU: 0x20444, offset: 0x20444, size: 0x8, addend: 0x0, symName: __ZNSt11_Tuple_implILm0EJPNSt7__cxx1118basic_stringstreamIcSt11char_traitsIcESaIcEEESt14default_deleteIS5_EEE7_M_headERKS9_, symObjAddr: 0x4950, symBinAddr: 0x100005880, symSize: 0x1C }
  - { offsetInCU: 0x2046E, offset: 0x2046E, size: 0x8, addend: 0x0, symName: __ZNSt11_Tuple_implILm1EJSt14default_deleteINSt7__cxx1118basic_stringstreamIcSt11char_traitsIcESaIcEEEEEE7_M_headERS8_, symObjAddr: 0x4934, symBinAddr: 0x100005864, symSize: 0x1C }
  - { offsetInCU: 0x20498, offset: 0x20498, size: 0x8, addend: 0x0, symName: __ZNSt10_Head_baseILm0EPNSt7__cxx1118basic_stringstreamIcSt11char_traitsIcESaIcEEELb0EE7_M_headERS7_, symObjAddr: 0x4920, symBinAddr: 0x100005850, symSize: 0x14 }
  - { offsetInCU: 0x204C1, offset: 0x204C1, size: 0x8, addend: 0x0, symName: __ZN7testing8internal19FormatForComparisonISt6vectorIxSaIxEES4_E6FormatB5cxx11ERKS4_, symObjAddr: 0x48F0, symBinAddr: 0x100005820, symSize: 0x30 }
  - { offsetInCU: 0x204EB, offset: 0x204EB, size: 0x8, addend: 0x0, symName: __ZSt12__equal_aux1IPKxS1_EbT_S2_T0_, symObjAddr: 0x48BC, symBinAddr: 0x1000057EC, symSize: 0x34 }
  - { offsetInCU: 0x2055A, offset: 0x2055A, size: 0x8, addend: 0x0, symName: __ZSt12__niter_baseIPKxSt6vectorIxSaIxEEET_N9__gnu_cxx17__normal_iteratorIS5_T0_EE, symObjAddr: 0x489C, symBinAddr: 0x1000057CC, symSize: 0x20 }
  - { offsetInCU: 0x20596, offset: 0x20596, size: 0x8, addend: 0x0, symName: __ZN7testing8internal19FormatForComparisonImmE6FormatB5cxx11ERKm, symObjAddr: 0x486C, symBinAddr: 0x10000579C, symSize: 0x30 }
  - { offsetInCU: 0x205C0, offset: 0x205C0, size: 0x8, addend: 0x0, symName: __ZSt13__copy_move_aILb0EPKxPxET1_T0_S4_S3_, symObjAddr: 0x480C, symBinAddr: 0x10000573C, symSize: 0x60 }
  - { offsetInCU: 0x20628, offset: 0x20628, size: 0x8, addend: 0x0, symName: __ZSt12__miter_baseIPKxET_S2_, symObjAddr: 0x47F8, symBinAddr: 0x100005728, symSize: 0x14 }
  - { offsetInCU: 0x2065B, offset: 0x2065B, size: 0x8, addend: 0x0, symName: __ZN7testing8internal19FormatForComparisonIimE6FormatB5cxx11ERKi, symObjAddr: 0x47C8, symBinAddr: 0x1000056F8, symSize: 0x30 }
  - { offsetInCU: 0x20685, offset: 0x20685, size: 0x8, addend: 0x0, symName: __ZN7testing8internal19FormatForComparisonImiE6FormatB5cxx11ERKm, symObjAddr: 0x4798, symBinAddr: 0x1000056C8, symSize: 0x30 }
  - { offsetInCU: 0x206AF, offset: 0x206AF, size: 0x8, addend: 0x0, symName: __ZSt8_DestroyIxEvPT_, symObjAddr: 0x4778, symBinAddr: 0x1000056A8, symSize: 0x20 }
  - { offsetInCU: 0x206E5, offset: 0x206E5, size: 0x8, addend: 0x0, symName: __ZNSt15__new_allocatorIxE10deallocateEPxm, symObjAddr: 0x4748, symBinAddr: 0x100005678, symSize: 0x30 }
  - { offsetInCU: 0x20752, offset: 0x20752, size: 0x8, addend: 0x0, symName: __ZNSt15__new_allocatorIcE10deallocateEPcm, symObjAddr: 0x4720, symBinAddr: 0x100005650, symSize: 0x28 }
  - { offsetInCU: 0x20798, offset: 0x20798, size: 0x8, addend: 0x0, symName: __ZNSt11_Tuple_implILm1EJSt14default_deleteINSt7__cxx1112basic_stringIcSt11char_traitsIcESaIcEEEEEE7_M_headERS8_, symObjAddr: 0x4704, symBinAddr: 0x100005634, symSize: 0x1C }
  - { offsetInCU: 0x207C2, offset: 0x207C2, size: 0x8, addend: 0x0, symName: __ZNSt11_Tuple_implILm0EJPNSt7__cxx1112basic_stringIcSt11char_traitsIcESaIcEEESt14default_deleteIS5_EEE7_M_headERS9_, symObjAddr: 0x46E8, symBinAddr: 0x100005618, symSize: 0x1C }
  - { offsetInCU: 0x207EC, offset: 0x207EC, size: 0x8, addend: 0x0, symName: __ZSt12__get_helperILm0EPNSt7__cxx1112basic_stringIcSt11char_traitsIcESaIcEEEJSt14default_deleteIS5_EEERKT0_RKSt11_Tuple_implIXT_EJS9_DpT1_EE, symObjAddr: 0x46CC, symBinAddr: 0x1000055FC, symSize: 0x1C }
  - { offsetInCU: 0x20834, offset: 0x20834, size: 0x8, addend: 0x0, symName: __ZSt12__get_helperILm0EPNSt7__cxx1118basic_stringstreamIcSt11char_traitsIcESaIcEEEJSt14default_deleteIS5_EEERKT0_RKSt11_Tuple_implIXT_EJS9_DpT1_EE, symObjAddr: 0x46B0, symBinAddr: 0x1000055E0, symSize: 0x1C }
  - { offsetInCU: 0x2087C, offset: 0x2087C, size: 0x8, addend: 0x0, symName: __ZSt12__get_helperILm1ESt14default_deleteINSt7__cxx1118basic_stringstreamIcSt11char_traitsIcESaIcEEEEJEERT0_RSt11_Tuple_implIXT_EJS8_DpT1_EE, symObjAddr: 0x4694, symBinAddr: 0x1000055C4, symSize: 0x1C }
  - { offsetInCU: 0x208BE, offset: 0x208BE, size: 0x8, addend: 0x0, symName: __ZNSt11_Tuple_implILm0EJPNSt7__cxx1118basic_stringstreamIcSt11char_traitsIcESaIcEEESt14default_deleteIS5_EEE7_M_headERS9_, symObjAddr: 0x4678, symBinAddr: 0x1000055A8, symSize: 0x1C }
  - { offsetInCU: 0x208E8, offset: 0x208E8, size: 0x8, addend: 0x0, symName: __ZN7testing8internal33FormatForComparisonFailureMessageISt6vectorIxSaIxEES4_EENSt7__cxx1112basic_stringIcSt11char_traitsIcESaIcEEERKT_RKT0_, symObjAddr: 0x4644, symBinAddr: 0x100005574, symSize: 0x34 }
  - { offsetInCU: 0x2092D, offset: 0x2092D, size: 0x8, addend: 0x0, symName: __ZSt11__equal_auxIN9__gnu_cxx17__normal_iteratorIPKxSt6vectorIxSaIxEEEES7_EbT_S8_T0_, symObjAddr: 0x45F0, symBinAddr: 0x100005520, symSize: 0x54 }
  - { offsetInCU: 0x209F2, offset: 0x209F2, size: 0x8, addend: 0x0, symName: __ZN9__gnu_cxx17__normal_iteratorIPKxSt6vectorIxSaIxEEEC1ERKS2_, symObjAddr: 0x45C8, symBinAddr: 0x1000054F8, symSize: 0x28 }
  - { offsetInCU: 0x209E2, offset: 0x209E2, size: 0x8, addend: 0x0, symName: __ZN7testing8internal33FormatForComparisonFailureMessageImmEENSt7__cxx1112basic_stringIcSt11char_traitsIcESaIcEEERKT_RKT0_, symObjAddr: 0x4594, symBinAddr: 0x1000054C4, symSize: 0x34 }
  - { offsetInCU: 0x20A27, offset: 0x20A27, size: 0x8, addend: 0x0, symName: __ZSt4copyIPKxPxET0_T_S4_S3_, symObjAddr: 0x454C, symBinAddr: 0x10000547C, symSize: 0x48 }
  - { offsetInCU: 0x20A85, offset: 0x20A85, size: 0x8, addend: 0x0, symName: __ZSt12construct_atIxJRKxEEDTgsnwcvPvLi0E_T_pispcl7declvalIT0_EEEEPS3_DpOS4_, symObjAddr: 0x4504, symBinAddr: 0x100005434, symSize: 0x48 }
  - { offsetInCU: 0x20AD7, offset: 0x20AD7, size: 0x8, addend: 0x0, symName: __ZSt7forwardIRKxEOT_RNSt16remove_referenceIS2_E4typeE, symObjAddr: 0x44F0, symBinAddr: 0x100005420, symSize: 0x14 }
  - { offsetInCU: 0x20B09, offset: 0x20B09, size: 0x8, addend: 0x0, symName: __ZN7testing8internal33FormatForComparisonFailureMessageIimEENSt7__cxx1112basic_stringIcSt11char_traitsIcESaIcEEERKT_RKT0_, symObjAddr: 0x44BC, symBinAddr: 0x1000053EC, symSize: 0x34 }
  - { offsetInCU: 0x20B4E, offset: 0x20B4E, size: 0x8, addend: 0x0, symName: __ZN7testing8internal33FormatForComparisonFailureMessageImiEENSt7__cxx1112basic_stringIcSt11char_traitsIcESaIcEEERKT_RKT0_, symObjAddr: 0x4488, symBinAddr: 0x1000053B8, symSize: 0x34 }
  - { offsetInCU: 0x20B93, offset: 0x20B93, size: 0x8, addend: 0x0, symName: __ZNSt12_Destroy_auxILb1EE9__destroyIPxEEvT_S3_, symObjAddr: 0x4470, symBinAddr: 0x1000053A0, symSize: 0x18 }
  - { offsetInCU: 0x20BC7, offset: 0x20BC7, size: 0x8, addend: 0x0, symName: __ZNSt12_Destroy_auxILb0EE9__destroyIPxEEvT_S3_, symObjAddr: 0x4424, symBinAddr: 0x100005354, symSize: 0x4C }
  - { offsetInCU: 0x20C39, offset: 0x20C39, size: 0x8, addend: 0x0, symName: __ZSt11__addressofIKcEPT_RS1_, symObjAddr: 0x4410, symBinAddr: 0x100005340, symSize: 0x14 }
  - { offsetInCU: 0x20CBF, offset: 0x20CBF, size: 0x8, addend: 0x0, symName: __ZSt12__get_helperILm1ESt14default_deleteINSt7__cxx1112basic_stringIcSt11char_traitsIcESaIcEEEEJEERT0_RSt11_Tuple_implIXT_EJS8_DpT1_EE, symObjAddr: 0x43F4, symBinAddr: 0x100005324, symSize: 0x1C }
  - { offsetInCU: 0x20D01, offset: 0x20D01, size: 0x8, addend: 0x0, symName: __ZSt12__get_helperILm0EPNSt7__cxx1112basic_stringIcSt11char_traitsIcESaIcEEEJSt14default_deleteIS5_EEERT0_RSt11_Tuple_implIXT_EJS9_DpT1_EE, symObjAddr: 0x43D8, symBinAddr: 0x100005308, symSize: 0x1C }
  - { offsetInCU: 0x20D4F, offset: 0x20D4F, size: 0x8, addend: 0x0, symName: __ZSt3getILm0EJPNSt7__cxx1112basic_stringIcSt11char_traitsIcESaIcEEESt14default_deleteIS5_EEERKNSt13tuple_elementIXT_ESt5tupleIJDpT0_EEE4typeERKSD_, symObjAddr: 0x43BC, symBinAddr: 0x1000052EC, symSize: 0x1C }
  - { offsetInCU: 0x20D99, offset: 0x20D99, size: 0x8, addend: 0x0, symName: __ZSt3getILm0EJPNSt7__cxx1118basic_stringstreamIcSt11char_traitsIcESaIcEEESt14default_deleteIS5_EEERKNSt13tuple_elementIXT_ESt5tupleIJDpT0_EEE4typeERKSD_, symObjAddr: 0x43A0, symBinAddr: 0x1000052D0, symSize: 0x1C }
  - { offsetInCU: 0x20DE3, offset: 0x20DE3, size: 0x8, addend: 0x0, symName: __ZSt3getILm1EJPNSt7__cxx1118basic_stringstreamIcSt11char_traitsIcESaIcEEESt14default_deleteIS5_EEERNSt13tuple_elementIXT_ESt5tupleIJDpT0_EEE4typeERSD_, symObjAddr: 0x4384, symBinAddr: 0x1000052B4, symSize: 0x1C }
  - { offsetInCU: 0x20E27, offset: 0x20E27, size: 0x8, addend: 0x0, symName: __ZSt12__get_helperILm0EPNSt7__cxx1118basic_stringstreamIcSt11char_traitsIcESaIcEEEJSt14default_deleteIS5_EEERT0_RSt11_Tuple_implIXT_EJS9_DpT1_EE, symObjAddr: 0x4368, symBinAddr: 0x100005298, symSize: 0x1C }
  - { offsetInCU: 0x20E6F, offset: 0x20E6F, size: 0x8, addend: 0x0, symName: __ZN7testing8internal18CmpHelperEQFailureISt6vectorIxSaIxEES4_EENS_15AssertionResultEPKcS7_RKT_RKT0_, symObjAddr: 0x42B0, symBinAddr: 0x1000051E0, symSize: 0xB8 }
  - { offsetInCU: 0x20EE2, offset: 0x20EE2, size: 0x8, addend: 0x0, symName: __ZSt5equalIN9__gnu_cxx17__normal_iteratorIPKxSt6vectorIxSaIxEEEES7_EbT_S8_T0_, symObjAddr: 0x4284, symBinAddr: 0x1000051B4, symSize: 0x2C }
  - { offsetInCU: 0x20F44, offset: 0x20F44, size: 0x8, addend: 0x0, symName: __ZNKSt6vectorIxSaIxEE3endEv, symObjAddr: 0x425C, symBinAddr: 0x10000518C, symSize: 0x28 }
  - { offsetInCU: 0x20F6E, offset: 0x20F6E, size: 0x8, addend: 0x0, symName: __ZNKSt6vectorIxSaIxEE5beginEv, symObjAddr: 0x4238, symBinAddr: 0x100005168, symSize: 0x24 }
  - { offsetInCU: 0x20F94, offset: 0x20F94, size: 0x8, addend: 0x0, symName: __ZN7testing8internal18CmpHelperEQFailureImmEENS_15AssertionResultEPKcS4_RKT_RKT0_, symObjAddr: 0x4180, symBinAddr: 0x1000050B0, symSize: 0xB8 }
  - { offsetInCU: 0x21007, offset: 0x21007, size: 0x8, addend: 0x0, symName: __ZNSt20__uninitialized_copyILb1EE13__uninit_copyIPKxPxEET0_T_S6_S5_, symObjAddr: 0x4154, symBinAddr: 0x100005084, symSize: 0x2C }
  - { offsetInCU: 0x21062, offset: 0x21062, size: 0x8, addend: 0x0, symName: __ZSt10_ConstructIxJRKxEEvPT_DpOT0_, symObjAddr: 0x40E8, symBinAddr: 0x100005018, symSize: 0x6C }
  - { offsetInCU: 0x210C7, offset: 0x210C7, size: 0x8, addend: 0x0, symName: __ZSt11__addressofIxEPT_RS0_, symObjAddr: 0x40D4, symBinAddr: 0x100005004, symSize: 0x14 }
  - { offsetInCU: 0x21129, offset: 0x21129, size: 0x8, addend: 0x0, symName: __ZN7testing8internal18CmpHelperEQFailureImiEENS_15AssertionResultEPKcS4_RKT_RKT0_, symObjAddr: 0x401C, symBinAddr: 0x100004F4C, symSize: 0xB8 }
  - { offsetInCU: 0x2119C, offset: 0x2119C, size: 0x8, addend: 0x0, symName: __ZSt8_DestroyIPxEvT_S1_, symObjAddr: 0x3FD8, symBinAddr: 0x100004F08, symSize: 0x44 }
  - { offsetInCU: 0x21229, offset: 0x21229, size: 0x8, addend: 0x0, symName: __ZSt9addressofIKcEPT_RS1_, symObjAddr: 0x3FBC, symBinAddr: 0x100004EEC, symSize: 0x1C }
  - { offsetInCU: 0x2125B, offset: 0x2125B, size: 0x8, addend: 0x0, symName: __ZNSt7__cxx1112basic_stringIcSt11char_traitsIcESaIcEE11_S_allocateERS3_m, symObjAddr: 0x3F20, symBinAddr: 0x100004E50, symSize: 0x9C }
  - { offsetInCU: 0x2134E, offset: 0x2134E, size: 0x8, addend: 0x0, symName: __ZSt3getILm1EJPNSt7__cxx1112basic_stringIcSt11char_traitsIcESaIcEEESt14default_deleteIS5_EEERNSt13tuple_elementIXT_ESt5tupleIJDpT0_EEE4typeERSD_, symObjAddr: 0x3F04, symBinAddr: 0x100004E34, symSize: 0x1C }
  - { offsetInCU: 0x21398, offset: 0x21398, size: 0x8, addend: 0x0, symName: __ZSt3getILm0EJPNSt7__cxx1112basic_stringIcSt11char_traitsIcESaIcEEESt14default_deleteIS5_EEERNSt13tuple_elementIXT_ESt5tupleIJDpT0_EEE4typeERSD_, symObjAddr: 0x3EE8, symBinAddr: 0x100004E18, symSize: 0x1C }
  - { offsetInCU: 0x213E0, offset: 0x213E0, size: 0x8, addend: 0x0, symName: __ZNKSt15__uniq_ptr_implINSt7__cxx1112basic_stringIcSt11char_traitsIcESaIcEEESt14default_deleteIS5_EE6_M_ptrEv, symObjAddr: 0x3EC8, symBinAddr: 0x100004DF8, symSize: 0x20 }
  - { offsetInCU: 0x2140A, offset: 0x2140A, size: 0x8, addend: 0x0, symName: __ZNKSt15__uniq_ptr_implINSt7__cxx1118basic_stringstreamIcSt11char_traitsIcESaIcEEESt14default_deleteIS5_EE6_M_ptrEv, symObjAddr: 0x3EA8, symBinAddr: 0x100004DD8, symSize: 0x20 }
  - { offsetInCU: 0x21434, offset: 0x21434, size: 0x8, addend: 0x0, symName: __ZNSt15__uniq_ptr_implINSt7__cxx1118basic_stringstreamIcSt11char_traitsIcESaIcEEESt14default_deleteIS5_EE10_M_deleterEv, symObjAddr: 0x3E8C, symBinAddr: 0x100004DBC, symSize: 0x1C }
  - { offsetInCU: 0x21460, offset: 0x21460, size: 0x8, addend: 0x0, symName: __ZSt3getILm0EJPNSt7__cxx1118basic_stringstreamIcSt11char_traitsIcESaIcEEESt14default_deleteIS5_EEERNSt13tuple_elementIXT_ESt5tupleIJDpT0_EEE4typeERSD_, symObjAddr: 0x3E70, symBinAddr: 0x100004DA0, symSize: 0x1C }
  - { offsetInCU: 0x214A4, offset: 0x214A4, size: 0x8, addend: 0x0, symName: __ZN7testing8internal11CmpHelperEQISt6vectorIxSaIxEES4_EENS_15AssertionResultEPKcS7_RKT_RKT0_, symObjAddr: 0x3E04, symBinAddr: 0x100004D34, symSize: 0x6C }
  - { offsetInCU: 0x21513, offset: 0x21513, size: 0x8, addend: 0x0, symName: __ZSteqIxSaIxEEbRKSt6vectorIT_T0_ES6_, symObjAddr: 0x3D80, symBinAddr: 0x100004CB0, symSize: 0x84 }
  - { offsetInCU: 0x21560, offset: 0x21560, size: 0x8, addend: 0x0, symName: __ZN7testing8internal11CmpHelperEQImmEENS_15AssertionResultEPKcS4_RKT_RKT0_, symObjAddr: 0x3D14, symBinAddr: 0x100004C44, symSize: 0x6C }
  - { offsetInCU: 0x215CF, offset: 0x215CF, size: 0x8, addend: 0x0, symName: __ZSt18uninitialized_copyIPKxPxET0_T_S4_S3_, symObjAddr: 0x3CD8, symBinAddr: 0x100004C08, symSize: 0x3C }
  - { offsetInCU: 0x2164A, offset: 0x2164A, size: 0x8, addend: 0x0, symName: __ZSt16__do_uninit_copyIPKxPxET0_T_S4_S3_, symObjAddr: 0x3C74, symBinAddr: 0x100004BA4, symSize: 0x64 }
  - { offsetInCU: 0x216B5, offset: 0x216B5, size: 0x8, addend: 0x0, symName: __ZNSt7__cxx1112basic_stringIcSt11char_traitsIcESaIcEE13_S_copy_charsEPcPKcS7_, symObjAddr: 0x3C38, symBinAddr: 0x100004B68, symSize: 0x3C }
  - { offsetInCU: 0x21709, offset: 0x21709, size: 0x8, addend: 0x0, symName: __ZNSt7__cxx1112basic_stringIcSt11char_traitsIcESaIcEE9_M_createERmm, symObjAddr: 0x3B44, symBinAddr: 0x100004A74, symSize: 0xF4 }
  - { offsetInCU: 0x2177D, offset: 0x2177D, size: 0x8, addend: 0x0, symName: __ZNKSt6vectorIxSaIxEE4sizeEv, symObjAddr: 0x3B1C, symBinAddr: 0x100004A4C, symSize: 0x28 }
  - { offsetInCU: 0x217A3, offset: 0x217A3, size: 0x8, addend: 0x0, symName: __ZN7testing8internal11CmpHelperEQImiEENS_15AssertionResultEPKcS4_RKT_RKT0_, symObjAddr: 0x3AAC, symBinAddr: 0x1000049DC, symSize: 0x70 }
  - { offsetInCU: 0x21851, offset: 0x21851, size: 0x8, addend: 0x0, symName: __ZNSt12_Vector_baseIxSaIxEE13_M_deallocateEPxm, symObjAddr: 0x3A20, symBinAddr: 0x100004950, symSize: 0x8C }
  - { offsetInCU: 0x2191F, offset: 0x2191F, size: 0x8, addend: 0x0, symName: __ZNSt19__ptr_traits_ptr_toIPKcS0_Lb0EE10pointer_toERS0_, symObjAddr: 0x3A04, symBinAddr: 0x100004934, symSize: 0x1C }
  - { offsetInCU: 0x21954, offset: 0x21954, size: 0x8, addend: 0x0, symName: __ZNSt7__cxx1112basic_stringIcSt11char_traitsIcESaIcEE7_S_copyEPcPKcm, symObjAddr: 0x39B8, symBinAddr: 0x1000048E8, symSize: 0x4C }
  - { offsetInCU: 0x219A4, offset: 0x219A4, size: 0x8, addend: 0x0, symName: __ZNSt7__cxx1112basic_stringIcSt11char_traitsIcESaIcEE10_M_destroyEm, symObjAddr: 0x3920, symBinAddr: 0x100004850, symSize: 0x98 }
  - { offsetInCU: 0x21A64, offset: 0x21A64, size: 0x8, addend: 0x0, symName: __ZNKSt7__cxx1112basic_stringIcSt11char_traitsIcESaIcEE8max_sizeEv, symObjAddr: 0x38F4, symBinAddr: 0x100004824, symSize: 0x2C }
  - { offsetInCU: 0x21AC8, offset: 0x21AC8, size: 0x8, addend: 0x0, symName: __ZNSt15__uniq_ptr_implINSt7__cxx1112basic_stringIcSt11char_traitsIcESaIcEEESt14default_deleteIS5_EE10_M_deleterEv, symObjAddr: 0x38D8, symBinAddr: 0x100004808, symSize: 0x1C }
  - { offsetInCU: 0x21AF2, offset: 0x21AF2, size: 0x8, addend: 0x0, symName: __ZNKSt14default_deleteINSt7__cxx1112basic_stringIcSt11char_traitsIcESaIcEEEEclEPS5_, symObjAddr: 0x3894, symBinAddr: 0x1000047C4, symSize: 0x44 }
  - { offsetInCU: 0x21B2E, offset: 0x21B2E, size: 0x8, addend: 0x0, symName: __ZSt4moveIRPNSt7__cxx1112basic_stringIcSt11char_traitsIcESaIcEEEEONSt16remove_referenceIT_E4typeEOS9_, symObjAddr: 0x3880, symBinAddr: 0x1000047B0, symSize: 0x14 }
  - { offsetInCU: 0x21B64, offset: 0x21B64, size: 0x8, addend: 0x0, symName: __ZNSt10unique_ptrINSt7__cxx1112basic_stringIcSt11char_traitsIcESaIcEEESt14default_deleteIS5_EE11get_deleterEv, symObjAddr: 0x3864, symBinAddr: 0x100004794, symSize: 0x1C }
  - { offsetInCU: 0x21B8E, offset: 0x21B8E, size: 0x8, addend: 0x0, symName: __ZNSt15__uniq_ptr_implINSt7__cxx1112basic_stringIcSt11char_traitsIcESaIcEEESt14default_deleteIS5_EE6_M_ptrEv, symObjAddr: 0x3848, symBinAddr: 0x100004778, symSize: 0x1C }
  - { offsetInCU: 0x21BB8, offset: 0x21BB8, size: 0x8, addend: 0x0, symName: __ZNKSt10unique_ptrINSt7__cxx1112basic_stringIcSt11char_traitsIcESaIcEEESt14default_deleteIS5_EE3getEv, symObjAddr: 0x382C, symBinAddr: 0x10000475C, symSize: 0x1C }
  - { offsetInCU: 0x21BE2, offset: 0x21BE2, size: 0x8, addend: 0x0, symName: __ZNKSt10unique_ptrINSt7__cxx1112basic_stringIcSt11char_traitsIcESaIcEEESt14default_deleteIS5_EEcvbEv, symObjAddr: 0x3804, symBinAddr: 0x100004734, symSize: 0x28 }
  - { offsetInCU: 0x21C0C, offset: 0x21C0C, size: 0x8, addend: 0x0, symName: __ZNKSt10unique_ptrINSt7__cxx1118basic_stringstreamIcSt11char_traitsIcESaIcEEESt14default_deleteIS5_EE3getEv, symObjAddr: 0x37E8, symBinAddr: 0x100004718, symSize: 0x1C }
  - { offsetInCU: 0x21C36, offset: 0x21C36, size: 0x8, addend: 0x0, symName: __ZNKSt14default_deleteINSt7__cxx1118basic_stringstreamIcSt11char_traitsIcESaIcEEEEclEPS5_, symObjAddr: 0x37B0, symBinAddr: 0x1000046E0, symSize: 0x38 }
  - { offsetInCU: 0x21C72, offset: 0x21C72, size: 0x8, addend: 0x0, symName: __ZSt4moveIRPNSt7__cxx1118basic_stringstreamIcSt11char_traitsIcESaIcEEEEONSt16remove_referenceIT_E4typeEOS9_, symObjAddr: 0x379C, symBinAddr: 0x1000046CC, symSize: 0x14 }
  - { offsetInCU: 0x21CA8, offset: 0x21CA8, size: 0x8, addend: 0x0, symName: __ZNSt10unique_ptrINSt7__cxx1118basic_stringstreamIcSt11char_traitsIcESaIcEEESt14default_deleteIS5_EE11get_deleterEv, symObjAddr: 0x3780, symBinAddr: 0x1000046B0, symSize: 0x1C }
  - { offsetInCU: 0x21CD2, offset: 0x21CD2, size: 0x8, addend: 0x0, symName: __ZNSt15__uniq_ptr_implINSt7__cxx1118basic_stringstreamIcSt11char_traitsIcESaIcEEESt14default_deleteIS5_EE6_M_ptrEv, symObjAddr: 0x3764, symBinAddr: 0x100004694, symSize: 0x1C }
  - { offsetInCU: 0x21D12, offset: 0x21D12, size: 0x8, addend: 0x0, symName: __ZNSt7__cxx1112basic_stringIcSt11char_traitsIcESaIcEE10_M_disposeEv, symObjAddr: 0x371C, symBinAddr: 0x10000464C, symSize: 0x48 }
  - { offsetInCU: 0x21D38, offset: 0x21D38, size: 0x8, addend: 0x0, symName: __ZN9__gnu_cxx11char_traitsIcE2eqERKcS3_, symObjAddr: 0x36EC, symBinAddr: 0x10000461C, symSize: 0x30 }
  - { offsetInCU: 0x21D77, offset: 0x21D77, size: 0x8, addend: 0x0, symName: __ZSt7forwardIRKcEOT_RNSt16remove_referenceIS2_E4typeE, symObjAddr: 0x36D8, symBinAddr: 0x100004608, symSize: 0x14 }
  - { offsetInCU: 0x21DA9, offset: 0x21DA9, size: 0x8, addend: 0x0, symName: __ZN7testing8internal8EqHelper7CompareISt6vectorIxSaIxEES5_LPv0EEENS_15AssertionResultEPKcS9_RKT_RKT0_, symObjAddr: 0x3690, symBinAddr: 0x1000045C0, symSize: 0x48 }
  - { offsetInCU: 0x21E18, offset: 0x21E18, size: 0x8, addend: 0x0, symName: __ZN7testing8internal8EqHelper7CompareImmLPv0EEENS_15AssertionResultEPKcS6_RKT_RKT0_, symObjAddr: 0x3648, symBinAddr: 0x100004578, symSize: 0x48 }
  - { offsetInCU: 0x21EA9, offset: 0x21EA9, size: 0x8, addend: 0x0, symName: __ZN7testing7MessagelsIA3_cEERS0_RKT_, symObjAddr: 0x3618, symBinAddr: 0x100004548, symSize: 0x30 }
  - { offsetInCU: 0x21EEC, offset: 0x21EEC, size: 0x8, addend: 0x0, symName: __ZN7testing7MessagelsINSt7__cxx1112basic_stringIcSt11char_traitsIcESaIcEEEEERS0_RKT_, symObjAddr: 0x35E8, symBinAddr: 0x100004518, symSize: 0x30 }
  - { offsetInCU: 0x21F41, offset: 0x21F41, size: 0x8, addend: 0x0, symName: __ZN7testing7MessagelsIA16_cEERS0_RKT_, symObjAddr: 0x35B8, symBinAddr: 0x1000044E8, symSize: 0x30 }
  - { offsetInCU: 0x21F84, offset: 0x21F84, size: 0x8, addend: 0x0, symName: __ZNSt15__new_allocatorIxE8allocateEmPKv, symObjAddr: 0x353C, symBinAddr: 0x10000446C, symSize: 0x7C }
  - { offsetInCU: 0x2200C, offset: 0x2200C, size: 0x8, addend: 0x0, symName: __ZSt22__uninitialized_copy_aIPKxPxxET0_T_S4_S3_RSaIT1_E, symObjAddr: 0x34E4, symBinAddr: 0x100004414, symSize: 0x58 }
  - { offsetInCU: 0x22080, offset: 0x22080, size: 0x8, addend: 0x0, symName: __ZNSt7__cxx1112basic_stringIcSt11char_traitsIcESaIcEE12_M_constructIPKcEEvT_S8_St20forward_iterator_tag, symObjAddr: 0x33C4, symBinAddr: 0x1000042F4, symSize: 0x120 }
  - { offsetInCU: 0x221FD, offset: 0x221FD, size: 0x8, addend: 0x0, symName: __ZZNSt7__cxx1112basic_stringIcSt11char_traitsIcESaIcEE12_M_constructIPKcEEvT_S8_St20forward_iterator_tagEN6_GuardC1EPS4_, symObjAddr: 0x336C, symBinAddr: 0x10000429C, symSize: 0x24 }
  - { offsetInCU: 0x2222E, offset: 0x2222E, size: 0x8, addend: 0x0, symName: __ZZNSt7__cxx1112basic_stringIcSt11char_traitsIcESaIcEE12_M_constructIPKcEEvT_S8_St20forward_iterator_tagEN6_GuardD1Ev, symObjAddr: 0x3390, symBinAddr: 0x1000042C0, symSize: 0x34 }
  - { offsetInCU: 0x222D3, offset: 0x222D3, size: 0x8, addend: 0x0, symName: __ZN7testing8internal8EqHelper7CompareImiLPv0EEENS_15AssertionResultEPKcS6_RKT_RKT0_, symObjAddr: 0x3324, symBinAddr: 0x100004254, symSize: 0x48 }
  - { offsetInCU: 0x223BC, offset: 0x223BC, size: 0x8, addend: 0x0, symName: __ZNSt17basic_string_viewIcSt11char_traitsIcEEC1EPKc, symObjAddr: 0x32E8, symBinAddr: 0x100004218, symSize: 0x3C }
  - { offsetInCU: 0x223F4, offset: 0x223F4, size: 0x8, addend: 0x0, symName: __ZNSt6vectorIxSaIxEED1Ev, symObjAddr: 0x328C, symBinAddr: 0x1000041BC, symSize: 0x5C }
  - { offsetInCU: 0x2247B, offset: 0x2247B, size: 0x8, addend: 0x0, symName: __ZNSt12_Vector_baseIxSaIxEED2Ev, symObjAddr: 0x323C, symBinAddr: 0x10000416C, symSize: 0x50 }
  - { offsetInCU: 0x22481, offset: 0x22481, size: 0x8, addend: 0x0, symName: __ZN7testing8internal16SuiteApiResolverINS_4TestEE22GetTearDownCaseOrSuiteEPKci, symObjAddr: 0x3110, symBinAddr: 0x100004040, symSize: 0x12C }
  - { offsetInCU: 0x224DE, offset: 0x224DE, size: 0x8, addend: 0x0, symName: __ZN7testing8internal16SuiteApiResolverINS_4TestEE19GetSetUpCaseOrSuiteEPKci, symObjAddr: 0x2FE4, symBinAddr: 0x100003F14, symSize: 0x12C }
  - { offsetInCU: 0x22555, offset: 0x22555, size: 0x8, addend: 0x0, symName: __ZNSt7__cxx1112basic_stringIcSt11char_traitsIcESaIcEE9_M_lengthEm, symObjAddr: 0x2FC0, symBinAddr: 0x100003EF0, symSize: 0x24 }
  - { offsetInCU: 0x2258F, offset: 0x2258F, size: 0x8, addend: 0x0, symName: __ZNSt7__cxx1112basic_stringIcSt11char_traitsIcESaIcEE11_M_capacityEm, symObjAddr: 0x2F9C, symBinAddr: 0x100003ECC, symSize: 0x24 }
  - { offsetInCU: 0x225C9, offset: 0x225C9, size: 0x8, addend: 0x0, symName: __ZNSt7__cxx1112basic_stringIcSt11char_traitsIcESaIcEE7_M_dataEPc, symObjAddr: 0x2F78, symBinAddr: 0x100003EA8, symSize: 0x24 }
  - { offsetInCU: 0x22603, offset: 0x22603, size: 0x8, addend: 0x0, symName: __ZNKSt7__cxx1112basic_stringIcSt11char_traitsIcESaIcEE13_M_local_dataEv, symObjAddr: 0x2F58, symBinAddr: 0x100003E88, symSize: 0x20 }
  - { offsetInCU: 0x2262D, offset: 0x2262D, size: 0x8, addend: 0x0, symName: __ZNKSt7__cxx1112basic_stringIcSt11char_traitsIcESaIcEE4dataEv, symObjAddr: 0x2F3C, symBinAddr: 0x100003E6C, symSize: 0x1C }
  - { offsetInCU: 0x22659, offset: 0x22659, size: 0x8, addend: 0x0, symName: __ZSt4moveIRNSt7__cxx1112basic_stringIcSt11char_traitsIcESaIcEEEEONSt16remove_referenceIT_E4typeEOS8_, symObjAddr: 0x2F28, symBinAddr: 0x100003E58, symSize: 0x14 }
  - { offsetInCU: 0x2268F, offset: 0x2268F, size: 0x8, addend: 0x0, symName: __ZNKSt7__cxx1112basic_stringIcSt11char_traitsIcESaIcEE16_M_get_allocatorEv, symObjAddr: 0x2F14, symBinAddr: 0x100003E44, symSize: 0x14 }
  - { offsetInCU: 0x2274D, offset: 0x2274D, size: 0x8, addend: 0x0, symName: __ZNSt10unique_ptrINSt7__cxx1112basic_stringIcSt11char_traitsIcESaIcEEESt14default_deleteIS5_EED1Ev, symObjAddr: 0x2EAC, symBinAddr: 0x100003DDC, symSize: 0x68 }
  - { offsetInCU: 0x22741, offset: 0x22741, size: 0x8, addend: 0x0, symName: __ZNKSt10unique_ptrINSt7__cxx1112basic_stringIcSt11char_traitsIcESaIcEEESt14default_deleteIS5_EEptEv, symObjAddr: 0x2E90, symBinAddr: 0x100003DC0, symSize: 0x1C }
  - { offsetInCU: 0x22767, offset: 0x22767, size: 0x8, addend: 0x0, symName: __ZSteqINSt7__cxx1112basic_stringIcSt11char_traitsIcESaIcEEESt14default_deleteIS5_EEbRKSt10unique_ptrIT_T0_EDn, symObjAddr: 0x2E68, symBinAddr: 0x100003D98, symSize: 0x28 }
  - { offsetInCU: 0x227B0, offset: 0x227B0, size: 0x8, addend: 0x0, symName: __ZNKSt10unique_ptrINSt7__cxx1118basic_stringstreamIcSt11char_traitsIcESaIcEEESt14default_deleteIS5_EEdeEv, symObjAddr: 0x2E10, symBinAddr: 0x100003D40, symSize: 0x58 }
  - { offsetInCU: 0x2288E, offset: 0x2288E, size: 0x8, addend: 0x0, symName: __ZNSt10unique_ptrINSt7__cxx1118basic_stringstreamIcSt11char_traitsIcESaIcEEESt14default_deleteIS5_EED1Ev, symObjAddr: 0x2DA8, symBinAddr: 0x100003CD8, symSize: 0x68 }
  - { offsetInCU: 0x2287C, offset: 0x2287C, size: 0x8, addend: 0x0, symName: __ZNKSt7__cxx1112basic_stringIcSt11char_traitsIcESaIcEEcvSt17basic_string_viewIcS2_EEv, symObjAddr: 0x2D60, symBinAddr: 0x100003C90, symSize: 0x48 }
  - { offsetInCU: 0x22900, offset: 0x22900, size: 0x8, addend: 0x0, symName: __ZNSt7__cxx1112basic_stringIcSt11char_traitsIcESaIcEED1Ev, symObjAddr: 0x2D38, symBinAddr: 0x100003C68, symSize: 0x28 }
  - { offsetInCU: 0x228F0, offset: 0x228F0, size: 0x8, addend: 0x0, symName: __ZNSt7__cxx1112basic_stringIcSt11char_traitsIcESaIcEE13_M_set_lengthEm, symObjAddr: 0x2CF0, symBinAddr: 0x100003C20, symSize: 0x48 }
  - { offsetInCU: 0x2292B, offset: 0x2292B, size: 0x8, addend: 0x0, symName: __ZNKSt7__cxx1112basic_stringIcSt11char_traitsIcESaIcEE5c_strEv, symObjAddr: 0x2CD4, symBinAddr: 0x100003C04, symSize: 0x1C }
  - { offsetInCU: 0x229BA, offset: 0x229BA, size: 0x8, addend: 0x0, symName: __ZNSt17basic_string_viewIcSt11char_traitsIcEEC1EPKcm, symObjAddr: 0x2CA0, symBinAddr: 0x100003BD0, symSize: 0x34 }
  - { offsetInCU: 0x229BD, offset: 0x229BD, size: 0x8, addend: 0x0, symName: __ZN9__gnu_cxx11char_traitsIcE4copyEPcPKcm, symObjAddr: 0x2BEC, symBinAddr: 0x100003B1C, symSize: 0xB4 }
  - { offsetInCU: 0x22A44, offset: 0x22A44, size: 0x8, addend: 0x0, symName: __ZN9__gnu_cxx11char_traitsIcE6lengthEPKc, symObjAddr: 0x2B94, symBinAddr: 0x100003AC4, symSize: 0x58 }
  - { offsetInCU: 0x22A7D, offset: 0x22A7D, size: 0x8, addend: 0x0, symName: __ZSt12construct_atIcJRKcEEDTgsnwcvPvLi0E_T_pispcl7declvalIT0_EEEEPS3_DpOS4_, symObjAddr: 0x2B4C, symBinAddr: 0x100003A7C, symSize: 0x48 }
  - { offsetInCU: 0x22ACD, offset: 0x22ACD, size: 0x8, addend: 0x0, symName: __ZN36RemoveNumbers_StringFromChatGPT_Test8TestBodyEv, symObjAddr: 0x26AC, symBinAddr: 0x1000035DC, symSize: 0x4A0 }
  - { offsetInCU: 0x22D6A, offset: 0x22D6A, size: 0x8, addend: 0x0, symName: __ZN7testing8internal15TestFactoryImplI36RemoveNumbers_StringFromChatGPT_TestEC1Ev, symObjAddr: 0x2678, symBinAddr: 0x1000035A8, symSize: 0x34 }
  - { offsetInCU: 0x22D42, offset: 0x22D42, size: 0x8, addend: 0x0, symName: __ZN35RemoveNumbers_StringWithCommas_Test8TestBodyEv, symObjAddr: 0x21D8, symBinAddr: 0x100003108, symSize: 0x4A0 }
  - { offsetInCU: 0x22FDE, offset: 0x22FDE, size: 0x8, addend: 0x0, symName: __ZN7testing8internal15TestFactoryImplI35RemoveNumbers_StringWithCommas_TestEC1Ev, symObjAddr: 0x21A4, symBinAddr: 0x1000030D4, symSize: 0x34 }
  - { offsetInCU: 0x22FB7, offset: 0x22FB7, size: 0x8, addend: 0x0, symName: __ZN34RemoveNumbers_StringWithMinus_Test8TestBodyEv, symObjAddr: 0x1D04, symBinAddr: 0x100002C34, symSize: 0x4A0 }
  - { offsetInCU: 0x23252, offset: 0x23252, size: 0x8, addend: 0x0, symName: __ZN7testing8internal15TestFactoryImplI34RemoveNumbers_StringWithMinus_TestEC1Ev, symObjAddr: 0x1CD0, symBinAddr: 0x100002C00, symSize: 0x34 }
  - { offsetInCU: 0x2322C, offset: 0x2322C, size: 0x8, addend: 0x0, symName: __ZN33RemoveNumbers_MultiNumString_Test8TestBodyEv, symObjAddr: 0x1830, symBinAddr: 0x100002760, symSize: 0x4A0 }
  - { offsetInCU: 0x234C6, offset: 0x234C6, size: 0x8, addend: 0x0, symName: __ZN7testing8internal15TestFactoryImplI33RemoveNumbers_MultiNumString_TestEC1Ev, symObjAddr: 0x17FC, symBinAddr: 0x10000272C, symSize: 0x34 }
  - { offsetInCU: 0x234A1, offset: 0x234A1, size: 0x8, addend: 0x0, symName: __ZN30RemoveNumbers_NoNumString_Test8TestBodyEv, symObjAddr: 0x1548, symBinAddr: 0x100002478, symSize: 0x2B4 }
  - { offsetInCU: 0x23618, offset: 0x23618, size: 0x8, addend: 0x0, symName: __ZN7testing8internal15TestFactoryImplI30RemoveNumbers_NoNumString_TestEC1Ev, symObjAddr: 0x1514, symBinAddr: 0x100002444, symSize: 0x34 }
  - { offsetInCU: 0x235F6, offset: 0x235F6, size: 0x8, addend: 0x0, symName: __ZN33RemoveNumbers_NonemptyVector_Test8TestBodyEv, symObjAddr: 0x1330, symBinAddr: 0x100002260, symSize: 0x1E4 }
  - { offsetInCU: 0x237BB, offset: 0x237BB, size: 0x8, addend: 0x0, symName: __ZN7testing8internal15TestFactoryImplI33RemoveNumbers_NonemptyVector_TestEC1Ev, symObjAddr: 0x12FC, symBinAddr: 0x10000222C, symSize: 0x34 }
  - { offsetInCU: 0x23796, offset: 0x23796, size: 0x8, addend: 0x0, symName: __ZN30RemoveNumbers_SmallString_Test8TestBodyEv, symObjAddr: 0xE54, symBinAddr: 0x100001D84, symSize: 0x4A8 }
  - { offsetInCU: 0x239C7, offset: 0x239C7, size: 0x8, addend: 0x0, symName: __ZNSt7__cxx1112basic_stringIcSt11char_traitsIcESaIcEE4dataEv, symObjAddr: 0xE38, symBinAddr: 0x100001D68, symSize: 0x1C }
  - { offsetInCU: 0x23A38, offset: 0x23A38, size: 0x8, addend: 0x0, symName: __ZNSt12_Vector_baseIxSaIxEE11_M_allocateEm, symObjAddr: 0xD74, symBinAddr: 0x100001CA4, symSize: 0xC4 }
  - { offsetInCU: 0x23B02, offset: 0x23B02, size: 0x8, addend: 0x0, symName: __ZNSt6vectorIxSaIxEE11_S_max_sizeERKS0_, symObjAddr: 0xD40, symBinAddr: 0x100001C70, symSize: 0x34 }
  - { offsetInCU: 0x23B4E, offset: 0x23B4E, size: 0x8, addend: 0x0, symName: __ZNSt6vectorIxSaIxEE17_S_check_init_lenEmRKS0_, symObjAddr: 0xCCC, symBinAddr: 0x100001BFC, symSize: 0x74 }
  - { offsetInCU: 0x23C04, offset: 0x23C04, size: 0x8, addend: 0x0, symName: __ZNSt12_Vector_baseIxSaIxEE19_M_get_Tp_allocatorEv, symObjAddr: 0xCB8, symBinAddr: 0x100001BE8, symSize: 0x14 }
  - { offsetInCU: 0x23C74, offset: 0x23C74, size: 0x8, addend: 0x0, symName: __ZNSt6vectorIxSaIxEE19_M_range_initializeIPKxEEvT_S5_St20forward_iterator_tag, symObjAddr: 0xBD4, symBinAddr: 0x100001B04, symSize: 0xE4 }
  - { offsetInCU: 0x23D92, offset: 0x23D92, size: 0x8, addend: 0x0, symName: __ZNKSt16initializer_listIxE4sizeEv, symObjAddr: 0xBBC, symBinAddr: 0x100001AEC, symSize: 0x18 }
  - { offsetInCU: 0x23DBC, offset: 0x23DBC, size: 0x8, addend: 0x0, symName: __ZNKSt16initializer_listIxE3endEv, symObjAddr: 0xB84, symBinAddr: 0x100001AB4, symSize: 0x38 }
  - { offsetInCU: 0x23DE6, offset: 0x23DE6, size: 0x8, addend: 0x0, symName: __ZNKSt16initializer_listIxE5beginEv, symObjAddr: 0xB6C, symBinAddr: 0x100001A9C, symSize: 0x18 }
  - { offsetInCU: 0x23E58, offset: 0x23E58, size: 0x8, addend: 0x0, symName: __ZNSt12_Vector_baseIxSaIxEEC2ERKS0_, symObjAddr: 0xB44, symBinAddr: 0x100001A74, symSize: 0x28 }
  - { offsetInCU: 0x23EFA, offset: 0x23EFA, size: 0x8, addend: 0x0, symName: __ZNSt12_Vector_baseIxSaIxEE12_Vector_implC1ERKS0_, symObjAddr: 0xAF8, symBinAddr: 0x100001A28, symSize: 0x4C }
  - { offsetInCU: 0x23FB9, offset: 0x23FB9, size: 0x8, addend: 0x0, symName: __ZNSt6vectorIxSaIxEEC1ESt16initializer_listIxERKS0_, symObjAddr: 0xA88, symBinAddr: 0x1000019B8, symSize: 0x70 }
  - { offsetInCU: 0x2404A, offset: 0x2404A, size: 0x8, addend: 0x0, symName: __ZNSt7__cxx1112basic_stringIcSt11char_traitsIcESaIcEEC1IS3_EEPKcRKS3_, symObjAddr: 0x9EC, symBinAddr: 0x10000191C, symSize: 0x9C }
  - { offsetInCU: 0x240EB, offset: 0x240EB, size: 0x8, addend: 0x0, symName: __ZNSt7__cxx1112basic_stringIcSt11char_traitsIcESaIcEE12_Alloc_hiderC1EPcRKS3_, symObjAddr: 0x99C, symBinAddr: 0x1000018CC, symSize: 0x50 }
  - { offsetInCU: 0x24197, offset: 0x24197, size: 0x8, addend: 0x0, symName: __ZN7testing8internal15TestFactoryImplI30RemoveNumbers_SmallString_TestEC1Ev, symObjAddr: 0x968, symBinAddr: 0x100001898, symSize: 0x34 }
  - { offsetInCU: 0x24175, offset: 0x24175, size: 0x8, addend: 0x0, symName: __ZN30RemoveNumbers_EmptyString_Test8TestBodyEv, symObjAddr: 0x730, symBinAddr: 0x100001660, symSize: 0x238 }
  - { offsetInCU: 0x24283, offset: 0x24283, size: 0x8, addend: 0x0, symName: __ZNSt12_Vector_baseIxSaIxEE12_Vector_implD1Ev, symObjAddr: 0x710, symBinAddr: 0x100001640, symSize: 0x20 }
  - { offsetInCU: 0x242EB, offset: 0x242EB, size: 0x8, addend: 0x0, symName: __ZNSt12_Vector_baseIxSaIxEE17_Vector_impl_dataC2Ev, symObjAddr: 0x6E4, symBinAddr: 0x100001614, symSize: 0x2C }
  - { offsetInCU: 0x24374, offset: 0x24374, size: 0x8, addend: 0x0, symName: __ZN7testing8internal15TestFactoryImplI30RemoveNumbers_EmptyString_TestEC1Ev, symObjAddr: 0x6B0, symBinAddr: 0x1000015E0, symSize: 0x34 }
  - { offsetInCU: 0x2439C, offset: 0x2439C, size: 0x8, addend: 0x0, symName: __ZN7testing8internal15TestFactoryBaseD2Ev, symObjAddr: 0x688, symBinAddr: 0x1000015B8, symSize: 0x28 }
  - { offsetInCU: 0x243E0, offset: 0x243E0, size: 0x8, addend: 0x0, symName: __ZN7testing15AssertionResultD1Ev, symObjAddr: 0x664, symBinAddr: 0x100001594, symSize: 0x24 }
  - { offsetInCU: 0x243EF, offset: 0x243EF, size: 0x8, addend: 0x0, symName: __ZN7testing4Test5SetupEv, symObjAddr: 0x650, symBinAddr: 0x100001580, symSize: 0x14 }
  - { offsetInCU: 0x24416, offset: 0x24416, size: 0x8, addend: 0x0, symName: __ZN7testing4Test13SetUpTestCaseEv, symObjAddr: 0x648, symBinAddr: 0x100001578, symSize: 0x8 }
  - { offsetInCU: 0x2442E, offset: 0x2442E, size: 0x8, addend: 0x0, symName: __ZN7testing4Test16TearDownTestCaseEv, symObjAddr: 0x640, symBinAddr: 0x100001570, symSize: 0x8 }
  - { offsetInCU: 0x24446, offset: 0x24446, size: 0x8, addend: 0x0, symName: __ZN7testing4Test17TearDownTestSuiteEv, symObjAddr: 0x638, symBinAddr: 0x100001568, symSize: 0x8 }
  - { offsetInCU: 0x2445E, offset: 0x2445E, size: 0x8, addend: 0x0, symName: __ZN7testing4Test14SetUpTestSuiteEv, symObjAddr: 0x630, symBinAddr: 0x100001560, symSize: 0x8 }
  - { offsetInCU: 0x244DA, offset: 0x244DA, size: 0x8, addend: 0x0, symName: __ZNSt7__cxx1112basic_stringIcSt11char_traitsIcESaIcEEC1EOS4_, symObjAddr: 0x49C, symBinAddr: 0x1000013CC, symSize: 0x194 }
  - { offsetInCU: 0x2457C, offset: 0x2457C, size: 0x8, addend: 0x0, symName: __ZNKSt7__cxx1112basic_stringIcSt11char_traitsIcESaIcEE6lengthEv, symObjAddr: 0x484, symBinAddr: 0x1000013B4, symSize: 0x18 }
  - { offsetInCU: 0x245A6, offset: 0x245A6, size: 0x8, addend: 0x0, symName: __ZNKSt7__cxx1112basic_stringIcSt11char_traitsIcESaIcEE11_M_is_localEv, symObjAddr: 0x41C, symBinAddr: 0x10000134C, symSize: 0x68 }
  - { offsetInCU: 0x245D0, offset: 0x245D0, size: 0x8, addend: 0x0, symName: __ZNSt7__cxx1112basic_stringIcSt11char_traitsIcESaIcEE16_M_get_allocatorEv, symObjAddr: 0x408, symBinAddr: 0x100001338, symSize: 0x14 }
  - { offsetInCU: 0x24645, offset: 0x24645, size: 0x8, addend: 0x0, symName: __ZN7testing8internal12CodeLocationD1Ev, symObjAddr: 0x3E8, symBinAddr: 0x100001318, symSize: 0x20 }
  - { offsetInCU: 0x24644, offset: 0x24644, size: 0x8, addend: 0x0, symName: __ZN7testing8internal19GetNotDefaultOrNullEPFvvES2_, symObjAddr: 0x3B8, symBinAddr: 0x1000012E8, symSize: 0x30 }
  - { offsetInCU: 0x24710, offset: 0x24710, size: 0x8, addend: 0x0, symName: __ZN7testing8internal12CodeLocationC1ENSt7__cxx1112basic_stringIcSt11char_traitsIcESaIcEEEi, symObjAddr: 0x36C, symBinAddr: 0x10000129C, symSize: 0x4C }
  - { offsetInCU: 0x24732, offset: 0x24732, size: 0x8, addend: 0x0, symName: __ZN7testing8internal15TestFactoryBaseC2Ev, symObjAddr: 0x344, symBinAddr: 0x100001274, symSize: 0x28 }
  - { offsetInCU: 0x2472E, offset: 0x2472E, size: 0x8, addend: 0x0, symName: __ZSt3minImERKT_S2_S2_, symObjAddr: 0x30C, symBinAddr: 0x10000123C, symSize: 0x38 }
  - { offsetInCU: 0x247AF, offset: 0x247AF, size: 0x8, addend: 0x0, symName: __ZN7testing7MessageD1Ev, symObjAddr: 0x2EC, symBinAddr: 0x10000121C, symSize: 0x20 }
  - { offsetInCU: 0x247C1, offset: 0x247C1, size: 0x8, addend: 0x0, symName: __ZNK7testing15AssertionResult15failure_messageEv, symObjAddr: 0x2D0, symBinAddr: 0x100001200, symSize: 0x1C }
  - { offsetInCU: 0x247EB, offset: 0x247EB, size: 0x8, addend: 0x0, symName: __ZNK7testing15AssertionResult7messageEv, symObjAddr: 0x27C, symBinAddr: 0x1000011AC, symSize: 0x54 }
  - { offsetInCU: 0x24815, offset: 0x24815, size: 0x8, addend: 0x0, symName: __ZNK7testing15AssertionResultcvbEv, symObjAddr: 0x264, symBinAddr: 0x100001194, symSize: 0x18 }
  - { offsetInCU: 0x2483F, offset: 0x2483F, size: 0x8, addend: 0x0, symName: __ZNKSt7__cxx1112basic_stringIcSt11char_traitsIcESaIcEE7_M_dataEv, symObjAddr: 0x24C, symBinAddr: 0x10000117C, symSize: 0x18 }
  - { offsetInCU: 0x24869, offset: 0x24869, size: 0x8, addend: 0x0, symName: __ZN7testing8internal8GTestLog9GetStreamEv, symObjAddr: 0x234, symBinAddr: 0x100001164, symSize: 0x18 }
  - { offsetInCU: 0x24893, offset: 0x24893, size: 0x8, addend: 0x0, symName: __ZNKSt7__cxx1112basic_stringIcSt11char_traitsIcESaIcEE4sizeEv, symObjAddr: 0x21C, symBinAddr: 0x10000114C, symSize: 0x18 }
  - { offsetInCU: 0x2496F, offset: 0x2496F, size: 0x8, addend: 0x0, symName: __ZNSt7__cxx1112basic_stringIcSt11char_traitsIcESaIcEE12_Alloc_hiderD1Ev, symObjAddr: 0x1FC, symBinAddr: 0x10000112C, symSize: 0x20 }
  - { offsetInCU: 0x249B4, offset: 0x249B4, size: 0x8, addend: 0x0, symName: __ZSt4moveIRSaIcEEONSt16remove_referenceIT_E4typeEOS3_, symObjAddr: 0x1E8, symBinAddr: 0x100001118, symSize: 0x14 }
  - { offsetInCU: 0x24A67, offset: 0x24A67, size: 0x8, addend: 0x0, symName: __ZNSt7__cxx1112basic_stringIcSt11char_traitsIcESaIcEE12_Alloc_hiderC1EPcOS3_, symObjAddr: 0x18C, symBinAddr: 0x1000010BC, symSize: 0x5C }
  - { offsetInCU: 0x24AD6, offset: 0x24AD6, size: 0x8, addend: 0x0, symName: __ZSt11__addressofIcEPT_RS0_, symObjAddr: 0x178, symBinAddr: 0x1000010A8, symSize: 0x14 }
  - { offsetInCU: 0x24B08, offset: 0x24B08, size: 0x8, addend: 0x0, symName: __ZSt9addressofIcEPT_RS0_, symObjAddr: 0x15C, symBinAddr: 0x10000108C, symSize: 0x1C }
  - { offsetInCU: 0x24B3A, offset: 0x24B3A, size: 0x8, addend: 0x0, symName: __ZNSt19__ptr_traits_ptr_toIPccLb0EE10pointer_toERc, symObjAddr: 0x140, symBinAddr: 0x100001070, symSize: 0x1C }
  - { offsetInCU: 0x24B67, offset: 0x24B67, size: 0x8, addend: 0x0, symName: __ZNSt7__cxx1112basic_stringIcSt11char_traitsIcESaIcEE13_M_local_dataEv, symObjAddr: 0x120, symBinAddr: 0x100001050, symSize: 0x20 }
  - { offsetInCU: 0x24B8D, offset: 0x24B8D, size: 0x8, addend: 0x0, symName: __ZNSt11char_traitsIcE4copyEPcPKcm, symObjAddr: 0xA8, symBinAddr: 0x100000FD8, symSize: 0x78 }
  - { offsetInCU: 0x24BF3, offset: 0x24BF3, size: 0x8, addend: 0x0, symName: __ZNSt11char_traitsIcE6lengthEPKc, symObjAddr: 0x6C, symBinAddr: 0x100000F9C, symSize: 0x3C }
  - { offsetInCU: 0x24C37, offset: 0x24C37, size: 0x8, addend: 0x0, symName: __ZNSt11char_traitsIcE6assignERcRKc, symObjAddr: 0x20, symBinAddr: 0x100000F50, symSize: 0x4C }
  - { offsetInCU: 0x24C8D, offset: 0x24C8D, size: 0x8, addend: 0x0, symName: __ZSt21is_constant_evaluatedv, symObjAddr: 0x18, symBinAddr: 0x100000F48, symSize: 0x8 }
  - { offsetInCU: 0x24CB4, offset: 0x24CB4, size: 0x8, addend: 0x0, symName: __ZnwmPv, symObjAddr: 0x0, symBinAddr: 0x100000F30, symSize: 0x18 }
  - { offsetInCU: 0xB7, offset: 0x24D9B, size: 0x8, addend: 0x0, symName: __Z9__isctypeim, symObjAddr: 0x0, symBinAddr: 0x100007990, symSize: 0x68 }
  - { offsetInCU: 0x5CBC, offset: 0x2A9A0, size: 0x8, addend: 0x0, symName: __Z7isdigiti, symObjAddr: 0x68, symBinAddr: 0x1000079F8, symSize: 0x20 }
  - { offsetInCU: 0x650B, offset: 0x2B1EF, size: 0x8, addend: 0x0, symName: __ZSt12construct_atIxJxEEDTgsnwcvPvLi0E_T_pispcl7declvalIT0_EEEEPS1_DpOS2_, symObjAddr: 0x2A58, symBinAddr: 0x10000946C, symSize: 0x48 }
  - { offsetInCU: 0x655D, offset: 0x2B241, size: 0x8, addend: 0x0, symName: __ZSt7forwardIxEOT_RNSt16remove_referenceIS0_E4typeE, symObjAddr: 0x2A44, symBinAddr: 0x100009458, symSize: 0x14 }
  - { offsetInCU: 0x6606, offset: 0x2B2EA, size: 0x8, addend: 0x0, symName: __ZSt4moveIRxEONSt16remove_referenceIT_E4typeEOS2_, symObjAddr: 0x2A30, symBinAddr: 0x100009444, symSize: 0x14 }
  - { offsetInCU: 0x6638, offset: 0x2B31C, size: 0x8, addend: 0x0, symName: __ZSt19__relocate_object_aIxxSaIxEEvPT_PT0_RT1_, symObjAddr: 0x29B8, symBinAddr: 0x1000093CC, symSize: 0x78 }
  - { offsetInCU: 0x6707, offset: 0x2B3EB, size: 0x8, addend: 0x0, symName: __ZNK9__gnu_cxx17__normal_iteratorIPxvEdeEv, symObjAddr: 0x29A0, symBinAddr: 0x1000093B4, symSize: 0x18 }
  - { offsetInCU: 0x6731, offset: 0x2B415, size: 0x8, addend: 0x0, symName: __ZN9__gnu_cxx17__normal_iteratorIPxvEppEv, symObjAddr: 0x2978, symBinAddr: 0x10000938C, symSize: 0x28 }
  - { offsetInCU: 0x675B, offset: 0x2B43F, size: 0x8, addend: 0x0, symName: __ZNK9__gnu_cxx17__normal_iteratorIPxvE4baseEv, symObjAddr: 0x2950, symBinAddr: 0x100009378, symSize: 0x14 }
  - { offsetInCU: 0x6781, offset: 0x2B465, size: 0x8, addend: 0x0, symName: __ZSt14__relocate_a_1IPxN9__gnu_cxx17__normal_iteratorIS0_vEESaIxEET0_T_S6_S5_RT1_, symObjAddr: 0x28CC, symBinAddr: 0x1000092F4, symSize: 0x84 }
  - { offsetInCU: 0x680A, offset: 0x2B4EE, size: 0x8, addend: 0x0, symName: __ZSt14__relocate_a_1IxxENSt9enable_ifIXsrSt24__is_bitwise_relocatableIT_vE5valueEPS2_E4typeES4_S4_S4_RSaIT0_E, symObjAddr: 0x26E4, symBinAddr: 0x100009248, symSize: 0xAC }
  - { offsetInCU: 0x6904, offset: 0x2B5E8, size: 0x8, addend: 0x0, symName: __ZN9__gnu_cxx17__normal_iteratorIPxvEC1ERKS1_, symObjAddr: 0x26BC, symBinAddr: 0x100009220, symSize: 0x28 }
  - { offsetInCU: 0x6905, offset: 0x2B5E9, size: 0x8, addend: 0x0, symName: __ZSt12__relocate_aIPxS0_SaIxEET0_T_S3_S2_RT1_, symObjAddr: 0x25A4, symBinAddr: 0x1000091C4, symSize: 0x5C }
  - { offsetInCU: 0x69B6, offset: 0x2B69A, size: 0x8, addend: 0x0, symName: __ZNSt7__cxx1112basic_stringIcSt11char_traitsIcESaIcEE9_M_appendEPKcm, symObjAddr: 0x247C, symBinAddr: 0x1000090FC, symSize: 0xC8 }
  - { offsetInCU: 0x6A12, offset: 0x2B6F6, size: 0x8, addend: 0x0, symName: __ZNKSt7__cxx1112basic_stringIcSt11char_traitsIcESaIcEE15_M_check_lengthEmmPKc, symObjAddr: 0x2408, symBinAddr: 0x100009088, symSize: 0x74 }
  - { offsetInCU: 0x6A6B, offset: 0x2B74F, size: 0x8, addend: 0x0, symName: __ZNSt6vectorIxSaIxEE11_S_relocateEPxS2_S2_RS0_, symObjAddr: 0x23D4, symBinAddr: 0x100009054, symSize: 0x34 }
  - { offsetInCU: 0x6AC8, offset: 0x2B7AC, size: 0x8, addend: 0x0, symName: __ZSt12__to_addressIxEPT_S1_, symObjAddr: 0x23C0, symBinAddr: 0x100009040, symSize: 0x14 }
  - { offsetInCU: 0x6B30, offset: 0x2B814, size: 0x8, addend: 0x0, symName: __ZNK9__gnu_cxx17__normal_iteratorIPxSt6vectorIxSaIxEEE4baseEv, symObjAddr: 0x22E8, symBinAddr: 0x10000902C, symSize: 0x14 }
  - { offsetInCU: 0x6B65, offset: 0x2B849, size: 0x8, addend: 0x0, symName: __ZNSt7__cxx1112basic_stringIcSt11char_traitsIcESaIcEE9_M_mutateEmmPKcm, symObjAddr: 0x2134, symBinAddr: 0x100008ED4, symSize: 0x158 }
  - { offsetInCU: 0x6C41, offset: 0x2B925, size: 0x8, addend: 0x0, symName: __ZNSt7__cxx1112basic_stringIcSt11char_traitsIcESaIcEE6appendEPKc, symObjAddr: 0x1EF8, symBinAddr: 0x100008E88, symSize: 0x4C }
  - { offsetInCU: 0x6C8D, offset: 0x2B971, size: 0x8, addend: 0x0, symName: __ZNSt6vectorIxSaIxEE17_M_realloc_appendIJRKxEEEvDpOT_, symObjAddr: 0x1D70, symBinAddr: 0x100008D00, symSize: 0x188 }
  - { offsetInCU: 0x6E57, offset: 0x2BB3B, size: 0x8, addend: 0x0, symName: __ZZNSt6vectorIxSaIxEE17_M_realloc_appendIJRKxEEEvDpOT_EN6_GuardC1EPxmRS0_, symObjAddr: 0x1C98, symBinAddr: 0x100008C28, symSize: 0x44 }
  - { offsetInCU: 0x6E97, offset: 0x2BB7B, size: 0x8, addend: 0x0, symName: __ZZNSt6vectorIxSaIxEE17_M_realloc_appendIJRKxEEEvDpOT_EN6_GuardD1Ev, symObjAddr: 0x1CDC, symBinAddr: 0x100008C6C, symSize: 0x94 }
  - { offsetInCU: 0x6F5F, offset: 0x2BC43, size: 0x8, addend: 0x0, symName: __ZNSt6vectorIxSaIxEE5beginEv, symObjAddr: 0x1C74, symBinAddr: 0x100008C04, symSize: 0x24 }
  - { offsetInCU: 0x6F8B, offset: 0x2BC6F, size: 0x8, addend: 0x0, symName: __ZN9__gnu_cxxmiIPxSt6vectorIxSaIxEEEENS_17__normal_iteratorIT_T0_E15difference_typeERKS8_SB_, symObjAddr: 0x1C34, symBinAddr: 0x100008BC4, symSize: 0x40 }
  - { offsetInCU: 0x703E, offset: 0x2BD22, size: 0x8, addend: 0x0, symName: __ZN9__gnu_cxx17__normal_iteratorIPxSt6vectorIxSaIxEEEC1ERKS1_, symObjAddr: 0x1C0C, symBinAddr: 0x100008B9C, symSize: 0x28 }
  - { offsetInCU: 0x7033, offset: 0x2BD17, size: 0x8, addend: 0x0, symName: __ZNSt6vectorIxSaIxEE3endEv, symObjAddr: 0x1BE4, symBinAddr: 0x100008B74, symSize: 0x28 }
  - { offsetInCU: 0x705D, offset: 0x2BD41, size: 0x8, addend: 0x0, symName: __ZNKSt6vectorIxSaIxEE12_M_check_lenEmPKc, symObjAddr: 0x1B14, symBinAddr: 0x100008AA4, symSize: 0xD0 }
  - { offsetInCU: 0x70BC, offset: 0x2BDA0, size: 0x8, addend: 0x0, symName: __ZSt3maxImERKT_S2_S2_, symObjAddr: 0x1ADC, symBinAddr: 0x100008A6C, symSize: 0x38 }
  - { offsetInCU: 0x7104, offset: 0x2BDE8, size: 0x8, addend: 0x0, symName: __ZNKSt12_Vector_baseIxSaIxEE19_M_get_Tp_allocatorEv, symObjAddr: 0x1A34, symBinAddr: 0x100008A58, symSize: 0x14 }
  - { offsetInCU: 0x712E, offset: 0x2BE12, size: 0x8, addend: 0x0, symName: __ZNKSt6vectorIxSaIxEE8max_sizeEv, symObjAddr: 0x1A14, symBinAddr: 0x100008A38, symSize: 0x20 }
  - { offsetInCU: 0x719C, offset: 0x2BE80, size: 0x8, addend: 0x0, symName: __ZNSt7__cxx1112basic_stringIcSt11char_traitsIcESaIcEE9push_backEc, symObjAddr: 0x1970, symBinAddr: 0x100008994, symSize: 0xA4 }
  - { offsetInCU: 0x71E8, offset: 0x2BECC, size: 0x8, addend: 0x0, symName: __ZNSt6vectorIxSaIxEE15_M_erase_at_endEPx, symObjAddr: 0x18E8, symBinAddr: 0x10000890C, symSize: 0x88 }
  - { offsetInCU: 0x727D, offset: 0x2BF61, size: 0x8, addend: 0x0, symName: __ZNKSt7__cxx1112basic_stringIcSt11char_traitsIcESaIcEE8capacityEv, symObjAddr: 0x1718, symBinAddr: 0x1000088D4, symSize: 0x38 }
  - { offsetInCU: 0x72A7, offset: 0x2BF8B, size: 0x8, addend: 0x0, symName: __ZNSt7__cxx1112basic_stringIcSt11char_traitsIcESaIcEEpLEPKc, symObjAddr: 0x1644, symBinAddr: 0x1000088B0, symSize: 0x24 }
  - { offsetInCU: 0x72E2, offset: 0x2BFC6, size: 0x8, addend: 0x0, symName: __ZNSt6vectorIxSaIxEE9push_backERKx, symObjAddr: 0x15B8, symBinAddr: 0x100008824, symSize: 0x8C }
  - { offsetInCU: 0x7353, offset: 0x2C037, size: 0x8, addend: 0x0, symName: __ZNSt7__cxx1112basic_stringIcSt11char_traitsIcESaIcEEpLEc, symObjAddr: 0x1588, symBinAddr: 0x1000087F4, symSize: 0x30 }
  - { offsetInCU: 0x738E, offset: 0x2C072, size: 0x8, addend: 0x0, symName: __ZNKSt17basic_string_viewIcSt11char_traitsIcEEixEm, symObjAddr: 0x1534, symBinAddr: 0x1000087A0, symSize: 0x54 }
  - { offsetInCU: 0x73E2, offset: 0x2C0C6, size: 0x8, addend: 0x0, symName: __ZNSt6vectorIxSaIxEE5clearEv, symObjAddr: 0x1508, symBinAddr: 0x100008774, symSize: 0x2C }
  - { offsetInCU: 0x7408, offset: 0x2C0EC, size: 0x8, addend: 0x0, symName: __ZSteqIcSt11char_traitsIcESaIcEEbRKNSt7__cxx1112basic_stringIT_T0_T1_EESA_, symObjAddr: 0x1488, symBinAddr: 0x1000086F4, symSize: 0x80 }
  - { offsetInCU: 0x7466, offset: 0x2C14A, size: 0x8, addend: 0x0, symName: __ZNKSt17basic_string_viewIcSt11char_traitsIcEE4findEcm, symObjAddr: 0x125C, symBinAddr: 0x10000865C, symSize: 0x98 }
  - { offsetInCU: 0x74F2, offset: 0x2C1D6, size: 0x8, addend: 0x0, symName: __ZNSt7__cxx1112basic_stringIcSt11char_traitsIcESaIcEEixEm, symObjAddr: 0x11EC, symBinAddr: 0x1000085EC, symSize: 0x70 }
  - { offsetInCU: 0x7547, offset: 0x2C22B, size: 0x8, addend: 0x0, symName: __ZNKSt17basic_string_viewIcSt11char_traitsIcEE4sizeEv, symObjAddr: 0x11BC, symBinAddr: 0x1000085D4, symSize: 0x18 }
  - { offsetInCU: 0x756D, offset: 0x2C251, size: 0x8, addend: 0x0, symName: __ZN9__gnu_cxx11char_traitsIcE4findEPKcmRS2_, symObjAddr: 0xF78, symBinAddr: 0x100008560, symSize: 0x74 }
  - { offsetInCU: 0x7640, offset: 0x2C324, size: 0x8, addend: 0x0, symName: __Z13removeNumbersB5cxx11St17basic_string_viewIcSt11char_traitsIcEERSt6vectorIxSaIxEE, symObjAddr: 0xB34, symBinAddr: 0x1000081BC, symSize: 0x3A4 }
  - { offsetInCU: 0x76A0, offset: 0x2C384, size: 0x8, addend: 0x0, symName: __ZssRK12CalendarDateS1_, symObjAddr: 0x7B8, symBinAddr: 0x100007E40, symSize: 0x37C }
  - { offsetInCU: 0x782A, offset: 0x2C50E, size: 0x8, addend: 0x0, symName: __Z11replaceCharRNSt7__cxx1112basic_stringIcSt11char_traitsIcESaIcEEERKSt17basic_string_viewIcS2_Ecm, symObjAddr: 0x5D8, symBinAddr: 0x100007D4C, symSize: 0xF4 }
  - { offsetInCU: 0x789B, offset: 0x2C57F, size: 0x8, addend: 0x0, symName: __Z11replaceCharRNSt7__cxx1112basic_stringIcSt11char_traitsIcESaIcEEEccm, symObjAddr: 0x4E8, symBinAddr: 0x100007C5C, symSize: 0xF0 }
  - { offsetInCU: 0x7971, offset: 0x2C655, size: 0x8, addend: 0x0, symName: __ZNSt7__cxx1112basic_stringIcSt11char_traitsIcESaIcEEC1Ev, symObjAddr: 0x43C, symBinAddr: 0x100007BB0, symSize: 0xAC }
  - { offsetInCU: 0x7A32, offset: 0x2C716, size: 0x8, addend: 0x0, symName: __ZNSt11char_traitsIcE4findEPKcmRS1_, symObjAddr: 0x258, symBinAddr: 0x100007B40, symSize: 0x70 }
  - { offsetInCU: 0x7A98, offset: 0x2C77C, size: 0x8, addend: 0x0, symName: __ZNSt11char_traitsIcE7compareEPKcS2_m, symObjAddr: 0x12C, symBinAddr: 0x100007A50, symSize: 0xF0 }
  - { offsetInCU: 0x7B22, offset: 0x2C806, size: 0x8, addend: 0x0, symName: __ZNSt11char_traitsIcE2ltERKcS2_, symObjAddr: 0xF4, symBinAddr: 0x100007A18, symSize: 0x38 }
  - { offsetInCU: 0x7B7A, offset: 0x2C85E, size: 0x8, addend: 0x0, symName: __Z9__isctypeim, symObjAddr: 0x0, symBinAddr: 0x100007990, symSize: 0x68 }
...
